ARM GAS  C:\Users\datpt\AppData\Local\Temp\ccCKfiih.s 			page 1


   1              		.cpu cortex-m4
   2              		.arch armv7e-m
   3              		.fpu fpv4-sp-d16
   4              		.eabi_attribute 27, 1
   5              		.eabi_attribute 28, 1
   6              		.eabi_attribute 20, 1
   7              		.eabi_attribute 21, 1
   8              		.eabi_attribute 23, 3
   9              		.eabi_attribute 24, 1
  10              		.eabi_attribute 25, 1
  11              		.eabi_attribute 26, 1
  12              		.eabi_attribute 30, 1
  13              		.eabi_attribute 34, 1
  14              		.eabi_attribute 18, 4
  15              		.file	"main.c"
  16              		.text
  17              		.section	.text._write,"ax",%progbits
  18              		.align	1
  19              		.global	_write
  20              		.syntax unified
  21              		.thumb
  22              		.thumb_func
  24              	_write:
  25              		@ args = 0, pretend = 0, frame = 0
  26              		@ frame_needed = 0, uses_anonymous_args = 0
  27 0000 10B5     		push	{r4, lr}
  28 0002 1446     		mov	r4, r2
  29 0004 4FF0FF33 		mov	r3, #-1
  30 0008 92B2     		uxth	r2, r2
  31 000a 0248     		ldr	r0, .L3
  32 000c FFF7FEFF 		bl	HAL_UART_Transmit
  33 0010 2046     		mov	r0, r4
  34 0012 10BD     		pop	{r4, pc}
  35              	.L4:
  36              		.align	2
  37              	.L3:
  38 0014 00000000 		.word	huart1
  40              		.section	.text.Error_Handler,"ax",%progbits
  41              		.align	1
  42              		.global	Error_Handler
  43              		.syntax unified
  44              		.thumb
  45              		.thumb_func
  47              	Error_Handler:
  48              		@ Volatile: function does not return.
  49              		@ args = 0, pretend = 0, frame = 0
  50              		@ frame_needed = 0, uses_anonymous_args = 0
  51              		@ link register save eliminated.
  52              		.syntax unified
  53              	@ 962 "Drivers/CMSIS/Include/cmsis_gcc.h" 1
  54 0000 72B6     		cpsid i
  55              	@ 0 "" 2
  56              		.thumb
  57              		.syntax unified
  58              	.L6:
  59 0002 FEE7     		b	.L6
  61              		.section	.text.SystemClock_Config,"ax",%progbits
ARM GAS  C:\Users\datpt\AppData\Local\Temp\ccCKfiih.s 			page 2


  62              		.align	1
  63              		.global	SystemClock_Config
  64              		.syntax unified
  65              		.thumb
  66              		.thumb_func
  68              	SystemClock_Config:
  69              		@ args = 0, pretend = 0, frame = 80
  70              		@ frame_needed = 0, uses_anonymous_args = 0
  71 0000 00B5     		push	{lr}
  72 0002 95B0     		sub	sp, sp, #84
  73 0004 3022     		movs	r2, #48
  74 0006 0021     		movs	r1, #0
  75 0008 08A8     		add	r0, sp, #32
  76 000a FFF7FEFF 		bl	memset
  77 000e 0023     		movs	r3, #0
  78 0010 0393     		str	r3, [sp, #12]
  79 0012 0493     		str	r3, [sp, #16]
  80 0014 0593     		str	r3, [sp, #20]
  81 0016 0693     		str	r3, [sp, #24]
  82 0018 0793     		str	r3, [sp, #28]
  83 001a 0193     		str	r3, [sp, #4]
  84 001c 184A     		ldr	r2, .L13
  85 001e 116C     		ldr	r1, [r2, #64]
  86 0020 41F08051 		orr	r1, r1, #268435456
  87 0024 1164     		str	r1, [r2, #64]
  88 0026 126C     		ldr	r2, [r2, #64]
  89 0028 02F08052 		and	r2, r2, #268435456
  90 002c 0192     		str	r2, [sp, #4]
  91 002e 019A     		ldr	r2, [sp, #4]
  92 0030 0293     		str	r3, [sp, #8]
  93 0032 144A     		ldr	r2, .L13+4
  94 0034 1168     		ldr	r1, [r2]
  95 0036 41F48041 		orr	r1, r1, #16384
  96 003a 1160     		str	r1, [r2]
  97 003c 1268     		ldr	r2, [r2]
  98 003e 02F48042 		and	r2, r2, #16384
  99 0042 0292     		str	r2, [sp, #8]
 100 0044 029A     		ldr	r2, [sp, #8]
 101 0046 0222     		movs	r2, #2
 102 0048 0892     		str	r2, [sp, #32]
 103 004a 0122     		movs	r2, #1
 104 004c 0B92     		str	r2, [sp, #44]
 105 004e 1022     		movs	r2, #16
 106 0050 0C92     		str	r2, [sp, #48]
 107 0052 0E93     		str	r3, [sp, #56]
 108 0054 08A8     		add	r0, sp, #32
 109 0056 FFF7FEFF 		bl	HAL_RCC_OscConfig
 110 005a 68B9     		cbnz	r0, .L11
 111 005c 0F23     		movs	r3, #15
 112 005e 0393     		str	r3, [sp, #12]
 113 0060 0021     		movs	r1, #0
 114 0062 0491     		str	r1, [sp, #16]
 115 0064 0591     		str	r1, [sp, #20]
 116 0066 0691     		str	r1, [sp, #24]
 117 0068 0791     		str	r1, [sp, #28]
 118 006a 03A8     		add	r0, sp, #12
 119 006c FFF7FEFF 		bl	HAL_RCC_ClockConfig
ARM GAS  C:\Users\datpt\AppData\Local\Temp\ccCKfiih.s 			page 3


 120 0070 20B9     		cbnz	r0, .L12
 121 0072 15B0     		add	sp, sp, #84
 122              		@ sp needed
 123 0074 5DF804FB 		ldr	pc, [sp], #4
 124              	.L11:
 125 0078 FFF7FEFF 		bl	Error_Handler
 126              	.L12:
 127 007c FFF7FEFF 		bl	Error_Handler
 128              	.L14:
 129              		.align	2
 130              	.L13:
 131 0080 00380240 		.word	1073887232
 132 0084 00700040 		.word	1073770496
 134              		.section	.text.main,"ax",%progbits
 135              		.align	1
 136              		.global	main
 137              		.syntax unified
 138              		.thumb
 139              		.thumb_func
 141              	main:
 142              		@ args = 0, pretend = 0, frame = 0
 143              		@ frame_needed = 0, uses_anonymous_args = 0
 144 0000 10B5     		push	{r4, lr}
 145 0002 FFF7FEFF 		bl	HAL_Init
 146 0006 FFF7FEFF 		bl	SystemClock_Config
 147 000a FFF7FEFF 		bl	MX_GPIO_Init
 148 000e FFF7FEFF 		bl	MX_USART1_UART_Init
 149              	.L16:
 150 0012 0B4C     		ldr	r4, .L18
 151 0014 0122     		movs	r2, #1
 152 0016 4FF48051 		mov	r1, #4096
 153 001a 2046     		mov	r0, r4
 154 001c FFF7FEFF 		bl	HAL_GPIO_WritePin
 155 0020 4FF47A70 		mov	r0, #1000
 156 0024 FFF7FEFF 		bl	HAL_Delay
 157 0028 0022     		movs	r2, #0
 158 002a 4FF48051 		mov	r1, #4096
 159 002e 2046     		mov	r0, r4
 160 0030 FFF7FEFF 		bl	HAL_GPIO_WritePin
 161 0034 4FF47A70 		mov	r0, #1000
 162 0038 FFF7FEFF 		bl	HAL_Delay
 163 003c E9E7     		b	.L16
 164              	.L19:
 165 003e 00BF     		.align	2
 166              	.L18:
 167 0040 000C0240 		.word	1073875968
 169              		.ident	"GCC: (GNU Tools for STM32 13.3.rel1.20240926-1715) 13.3.1 20240614"
ARM GAS  C:\Users\datpt\AppData\Local\Temp\ccCKfiih.s 			page 4

