ARM GAS  C:\Users\datpt\AppData\Local\Temp\cciowI92.s 			page 1


   1              		.cpu cortex-m4
   2              		.arch armv7e-m
   3              		.fpu fpv4-sp-d16
   4              		.eabi_attribute 27, 1
   5              		.eabi_attribute 28, 1
   6              		.eabi_attribute 20, 1
   7              		.eabi_attribute 21, 1
   8              		.eabi_attribute 23, 3
   9              		.eabi_attribute 24, 1
  10              		.eabi_attribute 25, 1
  11              		.eabi_attribute 26, 1
  12              		.eabi_attribute 30, 1
  13              		.eabi_attribute 34, 1
  14              		.eabi_attribute 18, 4
  15              		.file	"usart.c"
  16              		.text
  17              		.section	.text.MX_USART1_UART_Init,"ax",%progbits
  18              		.align	1
  19              		.global	MX_USART1_UART_Init
  20              		.syntax unified
  21              		.thumb
  22              		.thumb_func
  24              	MX_USART1_UART_Init:
  25              		@ args = 0, pretend = 0, frame = 0
  26              		@ frame_needed = 0, uses_anonymous_args = 0
  27 0000 08B5     		push	{r3, lr}
  28 0002 0A48     		ldr	r0, .L5
  29 0004 0A4B     		ldr	r3, .L5+4
  30 0006 0360     		str	r3, [r0]
  31 0008 4FF4E133 		mov	r3, #115200
  32 000c 4360     		str	r3, [r0, #4]
  33 000e 0023     		movs	r3, #0
  34 0010 8360     		str	r3, [r0, #8]
  35 0012 C360     		str	r3, [r0, #12]
  36 0014 0361     		str	r3, [r0, #16]
  37 0016 0C22     		movs	r2, #12
  38 0018 4261     		str	r2, [r0, #20]
  39 001a 8361     		str	r3, [r0, #24]
  40 001c C361     		str	r3, [r0, #28]
  41 001e FFF7FEFF 		bl	HAL_UART_Init
  42 0022 00B9     		cbnz	r0, .L4
  43              	.L1:
  44 0024 08BD     		pop	{r3, pc}
  45              	.L4:
  46 0026 FFF7FEFF 		bl	Error_Handler
  47 002a FBE7     		b	.L1
  48              	.L6:
  49              		.align	2
  50              	.L5:
  51 002c 00000000 		.word	huart1
  52 0030 00100140 		.word	1073811456
  54              		.section	.text.HAL_UART_MspInit,"ax",%progbits
  55              		.align	1
  56              		.global	HAL_UART_MspInit
  57              		.syntax unified
  58              		.thumb
  59              		.thumb_func
ARM GAS  C:\Users\datpt\AppData\Local\Temp\cciowI92.s 			page 2


  61              	HAL_UART_MspInit:
  62              		@ args = 0, pretend = 0, frame = 32
  63              		@ frame_needed = 0, uses_anonymous_args = 0
  64 0000 00B5     		push	{lr}
  65 0002 89B0     		sub	sp, sp, #36
  66 0004 0023     		movs	r3, #0
  67 0006 0393     		str	r3, [sp, #12]
  68 0008 0493     		str	r3, [sp, #16]
  69 000a 0593     		str	r3, [sp, #20]
  70 000c 0693     		str	r3, [sp, #24]
  71 000e 0793     		str	r3, [sp, #28]
  72 0010 0268     		ldr	r2, [r0]
  73 0012 03F18043 		add	r3, r3, #1073741824
  74 0016 03F58833 		add	r3, r3, #69632
  75 001a 9A42     		cmp	r2, r3
  76 001c 02D0     		beq	.L10
  77              	.L7:
  78 001e 09B0     		add	sp, sp, #36
  79              		@ sp needed
  80 0020 5DF804FB 		ldr	pc, [sp], #4
  81              	.L10:
  82 0024 0021     		movs	r1, #0
  83 0026 0191     		str	r1, [sp, #4]
  84 0028 03F59433 		add	r3, r3, #75776
  85 002c 5A6C     		ldr	r2, [r3, #68]
  86 002e 42F01002 		orr	r2, r2, #16
  87 0032 5A64     		str	r2, [r3, #68]
  88 0034 5A6C     		ldr	r2, [r3, #68]
  89 0036 02F01002 		and	r2, r2, #16
  90 003a 0192     		str	r2, [sp, #4]
  91 003c 019A     		ldr	r2, [sp, #4]
  92 003e 0291     		str	r1, [sp, #8]
  93 0040 1A6B     		ldr	r2, [r3, #48]
  94 0042 42F00102 		orr	r2, r2, #1
  95 0046 1A63     		str	r2, [r3, #48]
  96 0048 1B6B     		ldr	r3, [r3, #48]
  97 004a 03F00103 		and	r3, r3, #1
  98 004e 0293     		str	r3, [sp, #8]
  99 0050 029B     		ldr	r3, [sp, #8]
 100 0052 4FF4C063 		mov	r3, #1536
 101 0056 0393     		str	r3, [sp, #12]
 102 0058 0223     		movs	r3, #2
 103 005a 0493     		str	r3, [sp, #16]
 104 005c 0323     		movs	r3, #3
 105 005e 0693     		str	r3, [sp, #24]
 106 0060 0723     		movs	r3, #7
 107 0062 0793     		str	r3, [sp, #28]
 108 0064 03A9     		add	r1, sp, #12
 109 0066 0248     		ldr	r0, .L11
 110 0068 FFF7FEFF 		bl	HAL_GPIO_Init
 111 006c D7E7     		b	.L7
 112              	.L12:
 113 006e 00BF     		.align	2
 114              	.L11:
 115 0070 00000240 		.word	1073872896
 117              		.section	.text.HAL_UART_MspDeInit,"ax",%progbits
 118              		.align	1
ARM GAS  C:\Users\datpt\AppData\Local\Temp\cciowI92.s 			page 3


 119              		.global	HAL_UART_MspDeInit
 120              		.syntax unified
 121              		.thumb
 122              		.thumb_func
 124              	HAL_UART_MspDeInit:
 125              		@ args = 0, pretend = 0, frame = 0
 126              		@ frame_needed = 0, uses_anonymous_args = 0
 127 0000 08B5     		push	{r3, lr}
 128 0002 0268     		ldr	r2, [r0]
 129 0004 074B     		ldr	r3, .L17
 130 0006 9A42     		cmp	r2, r3
 131 0008 00D0     		beq	.L16
 132              	.L13:
 133 000a 08BD     		pop	{r3, pc}
 134              	.L16:
 135 000c 064A     		ldr	r2, .L17+4
 136 000e 536C     		ldr	r3, [r2, #68]
 137 0010 23F01003 		bic	r3, r3, #16
 138 0014 5364     		str	r3, [r2, #68]
 139 0016 4FF4C061 		mov	r1, #1536
 140 001a 0448     		ldr	r0, .L17+8
 141 001c FFF7FEFF 		bl	HAL_GPIO_DeInit
 142 0020 F3E7     		b	.L13
 143              	.L18:
 144 0022 00BF     		.align	2
 145              	.L17:
 146 0024 00100140 		.word	1073811456
 147 0028 00380240 		.word	1073887232
 148 002c 00000240 		.word	1073872896
 150              		.global	huart1
 151              		.section	.bss.huart1,"aw",%nobits
 152              		.align	2
 155              	huart1:
 156 0000 00000000 		.space	72
 156      00000000 
 156      00000000 
 156      00000000 
 156      00000000 
 157              		.ident	"GCC: (GNU Tools for STM32 13.3.rel1.20240926-1715) 13.3.1 20240614"
ARM GAS  C:\Users\datpt\AppData\Local\Temp\cciowI92.s 			page 4

