
build/release/Task1.elf:     file format elf32-littlearm

Sections:
Idx Name          Size      VMA       LMA       File off  Algn
  0 .isr_vector   00000188  08000000  08000000  00001000  2**0
                  CONTENTS, ALLOC, LOAD, READONLY, DATA
  1 .text         00000cfc  08000188  08000188  00001188  2**2
                  CONTENTS, ALLOC, LOAD, READONLY, CODE
  2 .rodata       00000010  08000e84  08000e84  00001e84  2**2
                  CONTENTS, ALLOC, LOAD, READONLY, DATA
  3 .ARM.extab    00000000  08000e94  08000e94  0000200c  2**0
                  CONTENTS, READONLY
  4 .ARM          00000008  08000e94  08000e94  00001e94  2**2
                  CONTENTS, ALLOC, LOAD, READONLY, DATA
  5 .preinit_array 00000000  08000e9c  08000e9c  0000200c  2**0
                  CONTENTS, ALLOC, LOAD, DATA
  6 .init_array   00000004  08000e9c  08000e9c  00001e9c  2**2
                  CONTENTS, ALLOC, LOAD, READONLY, DATA
  7 .fini_array   00000004  08000ea0  08000ea0  00001ea0  2**2
                  CONTENTS, ALLOC, LOAD, READONLY, DATA
  8 .data         0000000c  20000000  08000ea4  00002000  2**2
                  CONTENTS, ALLOC, LOAD, DATA
  9 .ccmram       00000000  10000000  10000000  0000200c  2**0
                  CONTENTS
 10 .bss          00000020  2000000c  2000000c  0000200c  2**2
                  ALLOC
 11 ._user_heap_stack 00000604  2000002c  2000002c  0000200c  2**0
                  ALLOC
 12 .ARM.attributes 00000030  00000000  00000000  0000200c  2**0
                  CONTENTS, READONLY
 13 .comment      00000043  00000000  00000000  0000203c  2**0
                  CONTENTS, READONLY
 14 .debug_frame  000000ac  00000000  00000000  00002080  2**2
                  CONTENTS, READONLY, DEBUGGING, OCTETS

Disassembly of section .text:

08000188 <__do_global_dtors_aux>:
 8000188:	b510      	push	{r4, lr}
 800018a:	4c05      	ldr	r4, [pc, #20]	@ (80001a0 <__do_global_dtors_aux+0x18>)
 800018c:	7823      	ldrb	r3, [r4, #0]
 800018e:	b933      	cbnz	r3, 800019e <__do_global_dtors_aux+0x16>
 8000190:	4b04      	ldr	r3, [pc, #16]	@ (80001a4 <__do_global_dtors_aux+0x1c>)
 8000192:	b113      	cbz	r3, 800019a <__do_global_dtors_aux+0x12>
 8000194:	4804      	ldr	r0, [pc, #16]	@ (80001a8 <__do_global_dtors_aux+0x20>)
 8000196:	f3af 8000 	nop.w
 800019a:	2301      	movs	r3, #1
 800019c:	7023      	strb	r3, [r4, #0]
 800019e:	bd10      	pop	{r4, pc}
 80001a0:	2000000c 	.word	0x2000000c
 80001a4:	00000000 	.word	0x00000000
 80001a8:	08000e6c 	.word	0x08000e6c

080001ac <frame_dummy>:
 80001ac:	b508      	push	{r3, lr}
 80001ae:	4b03      	ldr	r3, [pc, #12]	@ (80001bc <frame_dummy+0x10>)
 80001b0:	b11b      	cbz	r3, 80001ba <frame_dummy+0xe>
 80001b2:	4903      	ldr	r1, [pc, #12]	@ (80001c0 <frame_dummy+0x14>)
 80001b4:	4803      	ldr	r0, [pc, #12]	@ (80001c4 <frame_dummy+0x18>)
 80001b6:	f3af 8000 	nop.w
 80001ba:	bd08      	pop	{r3, pc}
 80001bc:	00000000 	.word	0x00000000
 80001c0:	20000010 	.word	0x20000010
 80001c4:	08000e6c 	.word	0x08000e6c

080001c8 <__aeabi_uldivmod>:
 80001c8:	b953      	cbnz	r3, 80001e0 <__aeabi_uldivmod+0x18>
 80001ca:	b94a      	cbnz	r2, 80001e0 <__aeabi_uldivmod+0x18>
 80001cc:	2900      	cmp	r1, #0
 80001ce:	bf08      	it	eq
 80001d0:	2800      	cmpeq	r0, #0
 80001d2:	bf1c      	itt	ne
 80001d4:	f04f 31ff 	movne.w	r1, #4294967295
 80001d8:	f04f 30ff 	movne.w	r0, #4294967295
 80001dc:	f000 b988 	b.w	80004f0 <__aeabi_idiv0>
 80001e0:	f1ad 0c08 	sub.w	ip, sp, #8
 80001e4:	e96d ce04 	strd	ip, lr, [sp, #-16]!
 80001e8:	f000 f806 	bl	80001f8 <__udivmoddi4>
 80001ec:	f8dd e004 	ldr.w	lr, [sp, #4]
 80001f0:	e9dd 2302 	ldrd	r2, r3, [sp, #8]
 80001f4:	b004      	add	sp, #16
 80001f6:	4770      	bx	lr

080001f8 <__udivmoddi4>:
 80001f8:	e92d 47f0 	stmdb	sp!, {r4, r5, r6, r7, r8, r9, sl, lr}
 80001fc:	9d08      	ldr	r5, [sp, #32]
 80001fe:	468e      	mov	lr, r1
 8000200:	4604      	mov	r4, r0
 8000202:	4688      	mov	r8, r1
 8000204:	2b00      	cmp	r3, #0
 8000206:	d14a      	bne.n	800029e <__udivmoddi4+0xa6>
 8000208:	428a      	cmp	r2, r1
 800020a:	4617      	mov	r7, r2
 800020c:	d962      	bls.n	80002d4 <__udivmoddi4+0xdc>
 800020e:	fab2 f682 	clz	r6, r2
 8000212:	b14e      	cbz	r6, 8000228 <__udivmoddi4+0x30>
 8000214:	f1c6 0320 	rsb	r3, r6, #32
 8000218:	fa01 f806 	lsl.w	r8, r1, r6
 800021c:	fa20 f303 	lsr.w	r3, r0, r3
 8000220:	40b7      	lsls	r7, r6
 8000222:	ea43 0808 	orr.w	r8, r3, r8
 8000226:	40b4      	lsls	r4, r6
 8000228:	ea4f 4e17 	mov.w	lr, r7, lsr #16
 800022c:	fa1f fc87 	uxth.w	ip, r7
 8000230:	fbb8 f1fe 	udiv	r1, r8, lr
 8000234:	0c23      	lsrs	r3, r4, #16
 8000236:	fb0e 8811 	mls	r8, lr, r1, r8
 800023a:	ea43 4308 	orr.w	r3, r3, r8, lsl #16
 800023e:	fb01 f20c 	mul.w	r2, r1, ip
 8000242:	429a      	cmp	r2, r3
 8000244:	d909      	bls.n	800025a <__udivmoddi4+0x62>
 8000246:	18fb      	adds	r3, r7, r3
 8000248:	f101 30ff 	add.w	r0, r1, #4294967295
 800024c:	f080 80ea 	bcs.w	8000424 <__udivmoddi4+0x22c>
 8000250:	429a      	cmp	r2, r3
 8000252:	f240 80e7 	bls.w	8000424 <__udivmoddi4+0x22c>
 8000256:	3902      	subs	r1, #2
 8000258:	443b      	add	r3, r7
 800025a:	1a9a      	subs	r2, r3, r2
 800025c:	b2a3      	uxth	r3, r4
 800025e:	fbb2 f0fe 	udiv	r0, r2, lr
 8000262:	fb0e 2210 	mls	r2, lr, r0, r2
 8000266:	ea43 4302 	orr.w	r3, r3, r2, lsl #16
 800026a:	fb00 fc0c 	mul.w	ip, r0, ip
 800026e:	459c      	cmp	ip, r3
 8000270:	d909      	bls.n	8000286 <__udivmoddi4+0x8e>
 8000272:	18fb      	adds	r3, r7, r3
 8000274:	f100 32ff 	add.w	r2, r0, #4294967295
 8000278:	f080 80d6 	bcs.w	8000428 <__udivmoddi4+0x230>
 800027c:	459c      	cmp	ip, r3
 800027e:	f240 80d3 	bls.w	8000428 <__udivmoddi4+0x230>
 8000282:	443b      	add	r3, r7
 8000284:	3802      	subs	r0, #2
 8000286:	ea40 4001 	orr.w	r0, r0, r1, lsl #16
 800028a:	eba3 030c 	sub.w	r3, r3, ip
 800028e:	2100      	movs	r1, #0
 8000290:	b11d      	cbz	r5, 800029a <__udivmoddi4+0xa2>
 8000292:	40f3      	lsrs	r3, r6
 8000294:	2200      	movs	r2, #0
 8000296:	e9c5 3200 	strd	r3, r2, [r5]
 800029a:	e8bd 87f0 	ldmia.w	sp!, {r4, r5, r6, r7, r8, r9, sl, pc}
 800029e:	428b      	cmp	r3, r1
 80002a0:	d905      	bls.n	80002ae <__udivmoddi4+0xb6>
 80002a2:	b10d      	cbz	r5, 80002a8 <__udivmoddi4+0xb0>
 80002a4:	e9c5 0100 	strd	r0, r1, [r5]
 80002a8:	2100      	movs	r1, #0
 80002aa:	4608      	mov	r0, r1
 80002ac:	e7f5      	b.n	800029a <__udivmoddi4+0xa2>
 80002ae:	fab3 f183 	clz	r1, r3
 80002b2:	2900      	cmp	r1, #0
 80002b4:	d146      	bne.n	8000344 <__udivmoddi4+0x14c>
 80002b6:	4573      	cmp	r3, lr
 80002b8:	d302      	bcc.n	80002c0 <__udivmoddi4+0xc8>
 80002ba:	4282      	cmp	r2, r0
 80002bc:	f200 8105 	bhi.w	80004ca <__udivmoddi4+0x2d2>
 80002c0:	1a84      	subs	r4, r0, r2
 80002c2:	eb6e 0203 	sbc.w	r2, lr, r3
 80002c6:	2001      	movs	r0, #1
 80002c8:	4690      	mov	r8, r2
 80002ca:	2d00      	cmp	r5, #0
 80002cc:	d0e5      	beq.n	800029a <__udivmoddi4+0xa2>
 80002ce:	e9c5 4800 	strd	r4, r8, [r5]
 80002d2:	e7e2      	b.n	800029a <__udivmoddi4+0xa2>
 80002d4:	2a00      	cmp	r2, #0
 80002d6:	f000 8090 	beq.w	80003fa <__udivmoddi4+0x202>
 80002da:	fab2 f682 	clz	r6, r2
 80002de:	2e00      	cmp	r6, #0
 80002e0:	f040 80a4 	bne.w	800042c <__udivmoddi4+0x234>
 80002e4:	1a8a      	subs	r2, r1, r2
 80002e6:	0c03      	lsrs	r3, r0, #16
 80002e8:	ea4f 4e17 	mov.w	lr, r7, lsr #16
 80002ec:	b280      	uxth	r0, r0
 80002ee:	b2bc      	uxth	r4, r7
 80002f0:	2101      	movs	r1, #1
 80002f2:	fbb2 fcfe 	udiv	ip, r2, lr
 80002f6:	fb0e 221c 	mls	r2, lr, ip, r2
 80002fa:	ea43 4302 	orr.w	r3, r3, r2, lsl #16
 80002fe:	fb04 f20c 	mul.w	r2, r4, ip
 8000302:	429a      	cmp	r2, r3
 8000304:	d907      	bls.n	8000316 <__udivmoddi4+0x11e>
 8000306:	18fb      	adds	r3, r7, r3
 8000308:	f10c 38ff 	add.w	r8, ip, #4294967295
 800030c:	d202      	bcs.n	8000314 <__udivmoddi4+0x11c>
 800030e:	429a      	cmp	r2, r3
 8000310:	f200 80e0 	bhi.w	80004d4 <__udivmoddi4+0x2dc>
 8000314:	46c4      	mov	ip, r8
 8000316:	1a9b      	subs	r3, r3, r2
 8000318:	fbb3 f2fe 	udiv	r2, r3, lr
 800031c:	fb0e 3312 	mls	r3, lr, r2, r3
 8000320:	ea40 4303 	orr.w	r3, r0, r3, lsl #16
 8000324:	fb02 f404 	mul.w	r4, r2, r4
 8000328:	429c      	cmp	r4, r3
 800032a:	d907      	bls.n	800033c <__udivmoddi4+0x144>
 800032c:	18fb      	adds	r3, r7, r3
 800032e:	f102 30ff 	add.w	r0, r2, #4294967295
 8000332:	d202      	bcs.n	800033a <__udivmoddi4+0x142>
 8000334:	429c      	cmp	r4, r3
 8000336:	f200 80ca 	bhi.w	80004ce <__udivmoddi4+0x2d6>
 800033a:	4602      	mov	r2, r0
 800033c:	1b1b      	subs	r3, r3, r4
 800033e:	ea42 400c 	orr.w	r0, r2, ip, lsl #16
 8000342:	e7a5      	b.n	8000290 <__udivmoddi4+0x98>
 8000344:	f1c1 0620 	rsb	r6, r1, #32
 8000348:	408b      	lsls	r3, r1
 800034a:	fa22 f706 	lsr.w	r7, r2, r6
 800034e:	431f      	orrs	r7, r3
 8000350:	fa0e f401 	lsl.w	r4, lr, r1
 8000354:	fa20 f306 	lsr.w	r3, r0, r6
 8000358:	fa2e fe06 	lsr.w	lr, lr, r6
 800035c:	ea4f 4917 	mov.w	r9, r7, lsr #16
 8000360:	4323      	orrs	r3, r4
 8000362:	fa00 f801 	lsl.w	r8, r0, r1
 8000366:	fa1f fc87 	uxth.w	ip, r7
 800036a:	fbbe f0f9 	udiv	r0, lr, r9
 800036e:	0c1c      	lsrs	r4, r3, #16
 8000370:	fb09 ee10 	mls	lr, r9, r0, lr
 8000374:	ea44 440e 	orr.w	r4, r4, lr, lsl #16
 8000378:	fb00 fe0c 	mul.w	lr, r0, ip
 800037c:	45a6      	cmp	lr, r4
 800037e:	fa02 f201 	lsl.w	r2, r2, r1
 8000382:	d909      	bls.n	8000398 <__udivmoddi4+0x1a0>
 8000384:	193c      	adds	r4, r7, r4
 8000386:	f100 3aff 	add.w	sl, r0, #4294967295
 800038a:	f080 809c 	bcs.w	80004c6 <__udivmoddi4+0x2ce>
 800038e:	45a6      	cmp	lr, r4
 8000390:	f240 8099 	bls.w	80004c6 <__udivmoddi4+0x2ce>
 8000394:	3802      	subs	r0, #2
 8000396:	443c      	add	r4, r7
 8000398:	eba4 040e 	sub.w	r4, r4, lr
 800039c:	fa1f fe83 	uxth.w	lr, r3
 80003a0:	fbb4 f3f9 	udiv	r3, r4, r9
 80003a4:	fb09 4413 	mls	r4, r9, r3, r4
 80003a8:	ea4e 4404 	orr.w	r4, lr, r4, lsl #16
 80003ac:	fb03 fc0c 	mul.w	ip, r3, ip
 80003b0:	45a4      	cmp	ip, r4
 80003b2:	d908      	bls.n	80003c6 <__udivmoddi4+0x1ce>
 80003b4:	193c      	adds	r4, r7, r4
 80003b6:	f103 3eff 	add.w	lr, r3, #4294967295
 80003ba:	f080 8082 	bcs.w	80004c2 <__udivmoddi4+0x2ca>
 80003be:	45a4      	cmp	ip, r4
 80003c0:	d97f      	bls.n	80004c2 <__udivmoddi4+0x2ca>
 80003c2:	3b02      	subs	r3, #2
 80003c4:	443c      	add	r4, r7
 80003c6:	ea43 4000 	orr.w	r0, r3, r0, lsl #16
 80003ca:	eba4 040c 	sub.w	r4, r4, ip
 80003ce:	fba0 ec02 	umull	lr, ip, r0, r2
 80003d2:	4564      	cmp	r4, ip
 80003d4:	4673      	mov	r3, lr
 80003d6:	46e1      	mov	r9, ip
 80003d8:	d362      	bcc.n	80004a0 <__udivmoddi4+0x2a8>
 80003da:	d05f      	beq.n	800049c <__udivmoddi4+0x2a4>
 80003dc:	b15d      	cbz	r5, 80003f6 <__udivmoddi4+0x1fe>
 80003de:	ebb8 0203 	subs.w	r2, r8, r3
 80003e2:	eb64 0409 	sbc.w	r4, r4, r9
 80003e6:	fa04 f606 	lsl.w	r6, r4, r6
 80003ea:	fa22 f301 	lsr.w	r3, r2, r1
 80003ee:	431e      	orrs	r6, r3
 80003f0:	40cc      	lsrs	r4, r1
 80003f2:	e9c5 6400 	strd	r6, r4, [r5]
 80003f6:	2100      	movs	r1, #0
 80003f8:	e74f      	b.n	800029a <__udivmoddi4+0xa2>
 80003fa:	fbb1 fcf2 	udiv	ip, r1, r2
 80003fe:	0c01      	lsrs	r1, r0, #16
 8000400:	ea41 410e 	orr.w	r1, r1, lr, lsl #16
 8000404:	b280      	uxth	r0, r0
 8000406:	ea40 4201 	orr.w	r2, r0, r1, lsl #16
 800040a:	463b      	mov	r3, r7
 800040c:	4638      	mov	r0, r7
 800040e:	463c      	mov	r4, r7
 8000410:	46b8      	mov	r8, r7
 8000412:	46be      	mov	lr, r7
 8000414:	2620      	movs	r6, #32
 8000416:	fbb1 f1f7 	udiv	r1, r1, r7
 800041a:	eba2 0208 	sub.w	r2, r2, r8
 800041e:	ea41 410c 	orr.w	r1, r1, ip, lsl #16
 8000422:	e766      	b.n	80002f2 <__udivmoddi4+0xfa>
 8000424:	4601      	mov	r1, r0
 8000426:	e718      	b.n	800025a <__udivmoddi4+0x62>
 8000428:	4610      	mov	r0, r2
 800042a:	e72c      	b.n	8000286 <__udivmoddi4+0x8e>
 800042c:	f1c6 0220 	rsb	r2, r6, #32
 8000430:	fa2e f302 	lsr.w	r3, lr, r2
 8000434:	40b7      	lsls	r7, r6
 8000436:	40b1      	lsls	r1, r6
 8000438:	fa20 f202 	lsr.w	r2, r0, r2
 800043c:	ea4f 4e17 	mov.w	lr, r7, lsr #16
 8000440:	430a      	orrs	r2, r1
 8000442:	fbb3 f8fe 	udiv	r8, r3, lr
 8000446:	b2bc      	uxth	r4, r7
 8000448:	fb0e 3318 	mls	r3, lr, r8, r3
 800044c:	0c11      	lsrs	r1, r2, #16
 800044e:	ea41 4103 	orr.w	r1, r1, r3, lsl #16
 8000452:	fb08 f904 	mul.w	r9, r8, r4
 8000456:	40b0      	lsls	r0, r6
 8000458:	4589      	cmp	r9, r1
 800045a:	ea4f 4310 	mov.w	r3, r0, lsr #16
 800045e:	b280      	uxth	r0, r0
 8000460:	d93e      	bls.n	80004e0 <__udivmoddi4+0x2e8>
 8000462:	1879      	adds	r1, r7, r1
 8000464:	f108 3cff 	add.w	ip, r8, #4294967295
 8000468:	d201      	bcs.n	800046e <__udivmoddi4+0x276>
 800046a:	4589      	cmp	r9, r1
 800046c:	d81f      	bhi.n	80004ae <__udivmoddi4+0x2b6>
 800046e:	eba1 0109 	sub.w	r1, r1, r9
 8000472:	fbb1 f9fe 	udiv	r9, r1, lr
 8000476:	fb09 f804 	mul.w	r8, r9, r4
 800047a:	fb0e 1119 	mls	r1, lr, r9, r1
 800047e:	b292      	uxth	r2, r2
 8000480:	ea42 4201 	orr.w	r2, r2, r1, lsl #16
 8000484:	4542      	cmp	r2, r8
 8000486:	d229      	bcs.n	80004dc <__udivmoddi4+0x2e4>
 8000488:	18ba      	adds	r2, r7, r2
 800048a:	f109 31ff 	add.w	r1, r9, #4294967295
 800048e:	d2c4      	bcs.n	800041a <__udivmoddi4+0x222>
 8000490:	4542      	cmp	r2, r8
 8000492:	d2c2      	bcs.n	800041a <__udivmoddi4+0x222>
 8000494:	f1a9 0102 	sub.w	r1, r9, #2
 8000498:	443a      	add	r2, r7
 800049a:	e7be      	b.n	800041a <__udivmoddi4+0x222>
 800049c:	45f0      	cmp	r8, lr
 800049e:	d29d      	bcs.n	80003dc <__udivmoddi4+0x1e4>
 80004a0:	ebbe 0302 	subs.w	r3, lr, r2
 80004a4:	eb6c 0c07 	sbc.w	ip, ip, r7
 80004a8:	3801      	subs	r0, #1
 80004aa:	46e1      	mov	r9, ip
 80004ac:	e796      	b.n	80003dc <__udivmoddi4+0x1e4>
 80004ae:	eba7 0909 	sub.w	r9, r7, r9
 80004b2:	4449      	add	r1, r9
 80004b4:	f1a8 0c02 	sub.w	ip, r8, #2
 80004b8:	fbb1 f9fe 	udiv	r9, r1, lr
 80004bc:	fb09 f804 	mul.w	r8, r9, r4
 80004c0:	e7db      	b.n	800047a <__udivmoddi4+0x282>
 80004c2:	4673      	mov	r3, lr
 80004c4:	e77f      	b.n	80003c6 <__udivmoddi4+0x1ce>
 80004c6:	4650      	mov	r0, sl
 80004c8:	e766      	b.n	8000398 <__udivmoddi4+0x1a0>
 80004ca:	4608      	mov	r0, r1
 80004cc:	e6fd      	b.n	80002ca <__udivmoddi4+0xd2>
 80004ce:	443b      	add	r3, r7
 80004d0:	3a02      	subs	r2, #2
 80004d2:	e733      	b.n	800033c <__udivmoddi4+0x144>
 80004d4:	f1ac 0c02 	sub.w	ip, ip, #2
 80004d8:	443b      	add	r3, r7
 80004da:	e71c      	b.n	8000316 <__udivmoddi4+0x11e>
 80004dc:	4649      	mov	r1, r9
 80004de:	e79c      	b.n	800041a <__udivmoddi4+0x222>
 80004e0:	eba1 0109 	sub.w	r1, r1, r9
 80004e4:	46c4      	mov	ip, r8
 80004e6:	fbb1 f9fe 	udiv	r9, r1, lr
 80004ea:	fb09 f804 	mul.w	r8, r9, r4
 80004ee:	e7c4      	b.n	800047a <__udivmoddi4+0x282>

080004f0 <__aeabi_idiv0>:
 80004f0:	4770      	bx	lr
 80004f2:	bf00      	nop

080004f4 <MX_GPIO_Init>:
 80004f4:	b082      	sub	sp, #8
 80004f6:	2100      	movs	r1, #0
 80004f8:	9100      	str	r1, [sp, #0]
 80004fa:	4b0b      	ldr	r3, [pc, #44]	@ (8000528 <MX_GPIO_Init+0x34>)
 80004fc:	6b1a      	ldr	r2, [r3, #48]	@ 0x30
 80004fe:	f042 0280 	orr.w	r2, r2, #128	@ 0x80
 8000502:	631a      	str	r2, [r3, #48]	@ 0x30
 8000504:	6b1a      	ldr	r2, [r3, #48]	@ 0x30
 8000506:	f002 0280 	and.w	r2, r2, #128	@ 0x80
 800050a:	9200      	str	r2, [sp, #0]
 800050c:	9a00      	ldr	r2, [sp, #0]
 800050e:	9101      	str	r1, [sp, #4]
 8000510:	6b1a      	ldr	r2, [r3, #48]	@ 0x30
 8000512:	f042 0201 	orr.w	r2, r2, #1
 8000516:	631a      	str	r2, [r3, #48]	@ 0x30
 8000518:	6b1b      	ldr	r3, [r3, #48]	@ 0x30
 800051a:	f003 0301 	and.w	r3, r3, #1
 800051e:	9301      	str	r3, [sp, #4]
 8000520:	9b01      	ldr	r3, [sp, #4]
 8000522:	b002      	add	sp, #8
 8000524:	4770      	bx	lr
 8000526:	bf00      	nop
 8000528:	40023800 	.word	0x40023800

0800052c <Error_Handler>:
 800052c:	b672      	cpsid	i
 800052e:	e7fe      	b.n	800052e <Error_Handler+0x2>

08000530 <SystemClock_Config>:
 8000530:	b500      	push	{lr}
 8000532:	b095      	sub	sp, #84	@ 0x54
 8000534:	2230      	movs	r2, #48	@ 0x30
 8000536:	2100      	movs	r1, #0
 8000538:	a808      	add	r0, sp, #32
 800053a:	f000 fc6a 	bl	8000e12 <memset>
 800053e:	2300      	movs	r3, #0
 8000540:	9303      	str	r3, [sp, #12]
 8000542:	9304      	str	r3, [sp, #16]
 8000544:	9305      	str	r3, [sp, #20]
 8000546:	9306      	str	r3, [sp, #24]
 8000548:	9307      	str	r3, [sp, #28]
 800054a:	9301      	str	r3, [sp, #4]
 800054c:	4a1f      	ldr	r2, [pc, #124]	@ (80005cc <SystemClock_Config+0x9c>)
 800054e:	6c11      	ldr	r1, [r2, #64]	@ 0x40
 8000550:	f041 5180 	orr.w	r1, r1, #268435456	@ 0x10000000
 8000554:	6411      	str	r1, [r2, #64]	@ 0x40
 8000556:	6c12      	ldr	r2, [r2, #64]	@ 0x40
 8000558:	f002 5280 	and.w	r2, r2, #268435456	@ 0x10000000
 800055c:	9201      	str	r2, [sp, #4]
 800055e:	9a01      	ldr	r2, [sp, #4]
 8000560:	9302      	str	r3, [sp, #8]
 8000562:	4b1b      	ldr	r3, [pc, #108]	@ (80005d0 <SystemClock_Config+0xa0>)
 8000564:	681a      	ldr	r2, [r3, #0]
 8000566:	f442 4280 	orr.w	r2, r2, #16384	@ 0x4000
 800056a:	601a      	str	r2, [r3, #0]
 800056c:	681b      	ldr	r3, [r3, #0]
 800056e:	f403 4380 	and.w	r3, r3, #16384	@ 0x4000
 8000572:	9302      	str	r3, [sp, #8]
 8000574:	9b02      	ldr	r3, [sp, #8]
 8000576:	2301      	movs	r3, #1
 8000578:	9308      	str	r3, [sp, #32]
 800057a:	f44f 3380 	mov.w	r3, #65536	@ 0x10000
 800057e:	9309      	str	r3, [sp, #36]	@ 0x24
 8000580:	2302      	movs	r3, #2
 8000582:	930e      	str	r3, [sp, #56]	@ 0x38
 8000584:	f44f 0280 	mov.w	r2, #4194304	@ 0x400000
 8000588:	920f      	str	r2, [sp, #60]	@ 0x3c
 800058a:	2219      	movs	r2, #25
 800058c:	9210      	str	r2, [sp, #64]	@ 0x40
 800058e:	2290      	movs	r2, #144	@ 0x90
 8000590:	9211      	str	r2, [sp, #68]	@ 0x44
 8000592:	9312      	str	r3, [sp, #72]	@ 0x48
 8000594:	2304      	movs	r3, #4
 8000596:	9313      	str	r3, [sp, #76]	@ 0x4c
 8000598:	a808      	add	r0, sp, #32
 800059a:	f000 f8fb 	bl	8000794 <HAL_RCC_OscConfig>
 800059e:	b980      	cbnz	r0, 80005c2 <SystemClock_Config+0x92>
 80005a0:	230f      	movs	r3, #15
 80005a2:	9303      	str	r3, [sp, #12]
 80005a4:	2102      	movs	r1, #2
 80005a6:	9104      	str	r1, [sp, #16]
 80005a8:	2300      	movs	r3, #0
 80005aa:	9305      	str	r3, [sp, #20]
 80005ac:	f44f 5280 	mov.w	r2, #4096	@ 0x1000
 80005b0:	9206      	str	r2, [sp, #24]
 80005b2:	9307      	str	r3, [sp, #28]
 80005b4:	a803      	add	r0, sp, #12
 80005b6:	f000 fb3d 	bl	8000c34 <HAL_RCC_ClockConfig>
 80005ba:	b920      	cbnz	r0, 80005c6 <SystemClock_Config+0x96>
 80005bc:	b015      	add	sp, #84	@ 0x54
 80005be:	f85d fb04 	ldr.w	pc, [sp], #4
 80005c2:	f7ff ffb3 	bl	800052c <Error_Handler>
 80005c6:	f7ff ffb1 	bl	800052c <Error_Handler>
 80005ca:	bf00      	nop
 80005cc:	40023800 	.word	0x40023800
 80005d0:	40007000 	.word	0x40007000

080005d4 <main>:
 80005d4:	b508      	push	{r3, lr}
 80005d6:	f000 f82b 	bl	8000630 <HAL_Init>
 80005da:	f7ff ffa9 	bl	8000530 <SystemClock_Config>
 80005de:	f7ff ff89 	bl	80004f4 <MX_GPIO_Init>
 80005e2:	e7fe      	b.n	80005e2 <main+0xe>

080005e4 <HAL_InitTick>:
 80005e4:	b510      	push	{r4, lr}
 80005e6:	4604      	mov	r4, r0
 80005e8:	4b0e      	ldr	r3, [pc, #56]	@ (8000624 <HAL_InitTick+0x40>)
 80005ea:	781a      	ldrb	r2, [r3, #0]
 80005ec:	f44f 737a 	mov.w	r3, #1000	@ 0x3e8
 80005f0:	fbb3 f3f2 	udiv	r3, r3, r2
 80005f4:	4a0c      	ldr	r2, [pc, #48]	@ (8000628 <HAL_InitTick+0x44>)
 80005f6:	6810      	ldr	r0, [r2, #0]
 80005f8:	fbb0 f0f3 	udiv	r0, r0, r3
 80005fc:	f000 f89a 	bl	8000734 <HAL_SYSTICK_Config>
 8000600:	b968      	cbnz	r0, 800061e <HAL_InitTick+0x3a>
 8000602:	2c0f      	cmp	r4, #15
 8000604:	d901      	bls.n	800060a <HAL_InitTick+0x26>
 8000606:	2001      	movs	r0, #1
 8000608:	e00a      	b.n	8000620 <HAL_InitTick+0x3c>
 800060a:	2200      	movs	r2, #0
 800060c:	4621      	mov	r1, r4
 800060e:	f04f 30ff 	mov.w	r0, #4294967295
 8000612:	f000 f87f 	bl	8000714 <HAL_NVIC_SetPriority>
 8000616:	4b05      	ldr	r3, [pc, #20]	@ (800062c <HAL_InitTick+0x48>)
 8000618:	601c      	str	r4, [r3, #0]
 800061a:	2000      	movs	r0, #0
 800061c:	e000      	b.n	8000620 <HAL_InitTick+0x3c>
 800061e:	2001      	movs	r0, #1
 8000620:	bd10      	pop	{r4, pc}
 8000622:	bf00      	nop
 8000624:	20000000 	.word	0x20000000
 8000628:	20000008 	.word	0x20000008
 800062c:	20000004 	.word	0x20000004

08000630 <HAL_Init>:
 8000630:	b508      	push	{r3, lr}
 8000632:	4b0b      	ldr	r3, [pc, #44]	@ (8000660 <HAL_Init+0x30>)
 8000634:	681a      	ldr	r2, [r3, #0]
 8000636:	f442 7200 	orr.w	r2, r2, #512	@ 0x200
 800063a:	601a      	str	r2, [r3, #0]
 800063c:	681a      	ldr	r2, [r3, #0]
 800063e:	f442 6280 	orr.w	r2, r2, #1024	@ 0x400
 8000642:	601a      	str	r2, [r3, #0]
 8000644:	681a      	ldr	r2, [r3, #0]
 8000646:	f442 7280 	orr.w	r2, r2, #256	@ 0x100
 800064a:	601a      	str	r2, [r3, #0]
 800064c:	2003      	movs	r0, #3
 800064e:	f000 f84f 	bl	80006f0 <HAL_NVIC_SetPriorityGrouping>
 8000652:	200f      	movs	r0, #15
 8000654:	f7ff ffc6 	bl	80005e4 <HAL_InitTick>
 8000658:	f000 f880 	bl	800075c <HAL_MspInit>
 800065c:	2000      	movs	r0, #0
 800065e:	bd08      	pop	{r3, pc}
 8000660:	40023c00 	.word	0x40023c00

08000664 <HAL_IncTick>:
 8000664:	4a03      	ldr	r2, [pc, #12]	@ (8000674 <HAL_IncTick+0x10>)
 8000666:	6811      	ldr	r1, [r2, #0]
 8000668:	4b03      	ldr	r3, [pc, #12]	@ (8000678 <HAL_IncTick+0x14>)
 800066a:	781b      	ldrb	r3, [r3, #0]
 800066c:	440b      	add	r3, r1
 800066e:	6013      	str	r3, [r2, #0]
 8000670:	4770      	bx	lr
 8000672:	bf00      	nop
 8000674:	20000028 	.word	0x20000028
 8000678:	20000000 	.word	0x20000000

0800067c <HAL_GetTick>:
 800067c:	4b01      	ldr	r3, [pc, #4]	@ (8000684 <HAL_GetTick+0x8>)
 800067e:	6818      	ldr	r0, [r3, #0]
 8000680:	4770      	bx	lr
 8000682:	bf00      	nop
 8000684:	20000028 	.word	0x20000028

08000688 <__NVIC_SetPriority>:
 8000688:	2800      	cmp	r0, #0
 800068a:	db08      	blt.n	800069e <__NVIC_SetPriority+0x16>
 800068c:	0109      	lsls	r1, r1, #4
 800068e:	b2c9      	uxtb	r1, r1
 8000690:	f100 4060 	add.w	r0, r0, #3758096384	@ 0xe0000000
 8000694:	f500 4061 	add.w	r0, r0, #57600	@ 0xe100
 8000698:	f880 1300 	strb.w	r1, [r0, #768]	@ 0x300
 800069c:	4770      	bx	lr
 800069e:	f000 000f 	and.w	r0, r0, #15
 80006a2:	0109      	lsls	r1, r1, #4
 80006a4:	b2c9      	uxtb	r1, r1
 80006a6:	4b01      	ldr	r3, [pc, #4]	@ (80006ac <__NVIC_SetPriority+0x24>)
 80006a8:	5419      	strb	r1, [r3, r0]
 80006aa:	4770      	bx	lr
 80006ac:	e000ed14 	.word	0xe000ed14

080006b0 <NVIC_EncodePriority>:
 80006b0:	b500      	push	{lr}
 80006b2:	f000 0007 	and.w	r0, r0, #7
 80006b6:	f1c0 0c07 	rsb	ip, r0, #7
 80006ba:	f1bc 0f04 	cmp.w	ip, #4
 80006be:	bf28      	it	cs
 80006c0:	f04f 0c04 	movcs.w	ip, #4
 80006c4:	1d03      	adds	r3, r0, #4
 80006c6:	2b06      	cmp	r3, #6
 80006c8:	d90f      	bls.n	80006ea <NVIC_EncodePriority+0x3a>
 80006ca:	1ec3      	subs	r3, r0, #3
 80006cc:	f04f 3eff 	mov.w	lr, #4294967295
 80006d0:	fa0e f00c 	lsl.w	r0, lr, ip
 80006d4:	ea21 0100 	bic.w	r1, r1, r0
 80006d8:	4099      	lsls	r1, r3
 80006da:	fa0e fe03 	lsl.w	lr, lr, r3
 80006de:	ea22 020e 	bic.w	r2, r2, lr
 80006e2:	ea41 0002 	orr.w	r0, r1, r2
 80006e6:	f85d fb04 	ldr.w	pc, [sp], #4
 80006ea:	2300      	movs	r3, #0
 80006ec:	e7ee      	b.n	80006cc <NVIC_EncodePriority+0x1c>
	...

080006f0 <HAL_NVIC_SetPriorityGrouping>:
 80006f0:	4a07      	ldr	r2, [pc, #28]	@ (8000710 <HAL_NVIC_SetPriorityGrouping+0x20>)
 80006f2:	68d3      	ldr	r3, [r2, #12]
 80006f4:	f423 63e0 	bic.w	r3, r3, #1792	@ 0x700
 80006f8:	041b      	lsls	r3, r3, #16
 80006fa:	0c1b      	lsrs	r3, r3, #16
 80006fc:	0200      	lsls	r0, r0, #8
 80006fe:	f400 60e0 	and.w	r0, r0, #1792	@ 0x700
 8000702:	4303      	orrs	r3, r0
 8000704:	f043 63bf 	orr.w	r3, r3, #100139008	@ 0x5f80000
 8000708:	f443 3300 	orr.w	r3, r3, #131072	@ 0x20000
 800070c:	60d3      	str	r3, [r2, #12]
 800070e:	4770      	bx	lr
 8000710:	e000ed00 	.word	0xe000ed00

08000714 <HAL_NVIC_SetPriority>:
 8000714:	b510      	push	{r4, lr}
 8000716:	4604      	mov	r4, r0
 8000718:	4b05      	ldr	r3, [pc, #20]	@ (8000730 <HAL_NVIC_SetPriority+0x1c>)
 800071a:	68d8      	ldr	r0, [r3, #12]
 800071c:	f3c0 2002 	ubfx	r0, r0, #8, #3
 8000720:	f7ff ffc6 	bl	80006b0 <NVIC_EncodePriority>
 8000724:	4601      	mov	r1, r0
 8000726:	4620      	mov	r0, r4
 8000728:	f7ff ffae 	bl	8000688 <__NVIC_SetPriority>
 800072c:	bd10      	pop	{r4, pc}
 800072e:	bf00      	nop
 8000730:	e000ed00 	.word	0xe000ed00

08000734 <HAL_SYSTICK_Config>:
 8000734:	3801      	subs	r0, #1
 8000736:	f1b0 7f80 	cmp.w	r0, #16777216	@ 0x1000000
 800073a:	d20b      	bcs.n	8000754 <HAL_SYSTICK_Config+0x20>
 800073c:	f04f 23e0 	mov.w	r3, #3758153728	@ 0xe000e000
 8000740:	6158      	str	r0, [r3, #20]
 8000742:	4a05      	ldr	r2, [pc, #20]	@ (8000758 <HAL_SYSTICK_Config+0x24>)
 8000744:	21f0      	movs	r1, #240	@ 0xf0
 8000746:	f882 1023 	strb.w	r1, [r2, #35]	@ 0x23
 800074a:	2000      	movs	r0, #0
 800074c:	6198      	str	r0, [r3, #24]
 800074e:	2207      	movs	r2, #7
 8000750:	611a      	str	r2, [r3, #16]
 8000752:	4770      	bx	lr
 8000754:	2001      	movs	r0, #1
 8000756:	4770      	bx	lr
 8000758:	e000ed00 	.word	0xe000ed00

0800075c <HAL_MspInit>:
 800075c:	b082      	sub	sp, #8
 800075e:	2100      	movs	r1, #0
 8000760:	9100      	str	r1, [sp, #0]
 8000762:	4b0b      	ldr	r3, [pc, #44]	@ (8000790 <HAL_MspInit+0x34>)
 8000764:	6c5a      	ldr	r2, [r3, #68]	@ 0x44
 8000766:	f442 4280 	orr.w	r2, r2, #16384	@ 0x4000
 800076a:	645a      	str	r2, [r3, #68]	@ 0x44
 800076c:	6c5a      	ldr	r2, [r3, #68]	@ 0x44
 800076e:	f402 4280 	and.w	r2, r2, #16384	@ 0x4000
 8000772:	9200      	str	r2, [sp, #0]
 8000774:	9a00      	ldr	r2, [sp, #0]
 8000776:	9101      	str	r1, [sp, #4]
 8000778:	6c1a      	ldr	r2, [r3, #64]	@ 0x40
 800077a:	f042 5280 	orr.w	r2, r2, #268435456	@ 0x10000000
 800077e:	641a      	str	r2, [r3, #64]	@ 0x40
 8000780:	6c1b      	ldr	r3, [r3, #64]	@ 0x40
 8000782:	f003 5380 	and.w	r3, r3, #268435456	@ 0x10000000
 8000786:	9301      	str	r3, [sp, #4]
 8000788:	9b01      	ldr	r3, [sp, #4]
 800078a:	b002      	add	sp, #8
 800078c:	4770      	bx	lr
 800078e:	bf00      	nop
 8000790:	40023800 	.word	0x40023800

08000794 <HAL_RCC_OscConfig>:
 8000794:	2800      	cmp	r0, #0
 8000796:	f000 81e0 	beq.w	8000b5a <HAL_RCC_OscConfig+0x3c6>
 800079a:	b570      	push	{r4, r5, r6, lr}
 800079c:	b082      	sub	sp, #8
 800079e:	4604      	mov	r4, r0
 80007a0:	6803      	ldr	r3, [r0, #0]
 80007a2:	f013 0f01 	tst.w	r3, #1
 80007a6:	d03b      	beq.n	8000820 <HAL_RCC_OscConfig+0x8c>
 80007a8:	4b9f      	ldr	r3, [pc, #636]	@ (8000a28 <HAL_RCC_OscConfig+0x294>)
 80007aa:	689b      	ldr	r3, [r3, #8]
 80007ac:	f003 030c 	and.w	r3, r3, #12
 80007b0:	2b04      	cmp	r3, #4
 80007b2:	d02c      	beq.n	800080e <HAL_RCC_OscConfig+0x7a>
 80007b4:	4b9c      	ldr	r3, [pc, #624]	@ (8000a28 <HAL_RCC_OscConfig+0x294>)
 80007b6:	689b      	ldr	r3, [r3, #8]
 80007b8:	f003 030c 	and.w	r3, r3, #12
 80007bc:	2b08      	cmp	r3, #8
 80007be:	d021      	beq.n	8000804 <HAL_RCC_OscConfig+0x70>
 80007c0:	6863      	ldr	r3, [r4, #4]
 80007c2:	f5b3 3f80 	cmp.w	r3, #65536	@ 0x10000
 80007c6:	d04f      	beq.n	8000868 <HAL_RCC_OscConfig+0xd4>
 80007c8:	f5b3 2fa0 	cmp.w	r3, #327680	@ 0x50000
 80007cc:	d052      	beq.n	8000874 <HAL_RCC_OscConfig+0xe0>
 80007ce:	4b96      	ldr	r3, [pc, #600]	@ (8000a28 <HAL_RCC_OscConfig+0x294>)
 80007d0:	681a      	ldr	r2, [r3, #0]
 80007d2:	f422 3280 	bic.w	r2, r2, #65536	@ 0x10000
 80007d6:	601a      	str	r2, [r3, #0]
 80007d8:	681a      	ldr	r2, [r3, #0]
 80007da:	f422 2280 	bic.w	r2, r2, #262144	@ 0x40000
 80007de:	601a      	str	r2, [r3, #0]
 80007e0:	6863      	ldr	r3, [r4, #4]
 80007e2:	2b00      	cmp	r3, #0
 80007e4:	d050      	beq.n	8000888 <HAL_RCC_OscConfig+0xf4>
 80007e6:	f7ff ff49 	bl	800067c <HAL_GetTick>
 80007ea:	4605      	mov	r5, r0
 80007ec:	4b8e      	ldr	r3, [pc, #568]	@ (8000a28 <HAL_RCC_OscConfig+0x294>)
 80007ee:	681b      	ldr	r3, [r3, #0]
 80007f0:	f413 3f00 	tst.w	r3, #131072	@ 0x20000
 80007f4:	d114      	bne.n	8000820 <HAL_RCC_OscConfig+0x8c>
 80007f6:	f7ff ff41 	bl	800067c <HAL_GetTick>
 80007fa:	1b40      	subs	r0, r0, r5
 80007fc:	2864      	cmp	r0, #100	@ 0x64
 80007fe:	d9f5      	bls.n	80007ec <HAL_RCC_OscConfig+0x58>
 8000800:	2003      	movs	r0, #3
 8000802:	e1b1      	b.n	8000b68 <HAL_RCC_OscConfig+0x3d4>
 8000804:	4b88      	ldr	r3, [pc, #544]	@ (8000a28 <HAL_RCC_OscConfig+0x294>)
 8000806:	685b      	ldr	r3, [r3, #4]
 8000808:	f413 0f80 	tst.w	r3, #4194304	@ 0x400000
 800080c:	d0d8      	beq.n	80007c0 <HAL_RCC_OscConfig+0x2c>
 800080e:	4b86      	ldr	r3, [pc, #536]	@ (8000a28 <HAL_RCC_OscConfig+0x294>)
 8000810:	681b      	ldr	r3, [r3, #0]
 8000812:	f413 3f00 	tst.w	r3, #131072	@ 0x20000
 8000816:	d003      	beq.n	8000820 <HAL_RCC_OscConfig+0x8c>
 8000818:	6863      	ldr	r3, [r4, #4]
 800081a:	2b00      	cmp	r3, #0
 800081c:	f000 819f 	beq.w	8000b5e <HAL_RCC_OscConfig+0x3ca>
 8000820:	6823      	ldr	r3, [r4, #0]
 8000822:	f013 0f02 	tst.w	r3, #2
 8000826:	d054      	beq.n	80008d2 <HAL_RCC_OscConfig+0x13e>
 8000828:	4b7f      	ldr	r3, [pc, #508]	@ (8000a28 <HAL_RCC_OscConfig+0x294>)
 800082a:	689b      	ldr	r3, [r3, #8]
 800082c:	f013 0f0c 	tst.w	r3, #12
 8000830:	d03e      	beq.n	80008b0 <HAL_RCC_OscConfig+0x11c>
 8000832:	4b7d      	ldr	r3, [pc, #500]	@ (8000a28 <HAL_RCC_OscConfig+0x294>)
 8000834:	689b      	ldr	r3, [r3, #8]
 8000836:	f003 030c 	and.w	r3, r3, #12
 800083a:	2b08      	cmp	r3, #8
 800083c:	d033      	beq.n	80008a6 <HAL_RCC_OscConfig+0x112>
 800083e:	68e3      	ldr	r3, [r4, #12]
 8000840:	2b00      	cmp	r3, #0
 8000842:	d068      	beq.n	8000916 <HAL_RCC_OscConfig+0x182>
 8000844:	4b79      	ldr	r3, [pc, #484]	@ (8000a2c <HAL_RCC_OscConfig+0x298>)
 8000846:	2201      	movs	r2, #1
 8000848:	601a      	str	r2, [r3, #0]
 800084a:	f7ff ff17 	bl	800067c <HAL_GetTick>
 800084e:	4605      	mov	r5, r0
 8000850:	4b75      	ldr	r3, [pc, #468]	@ (8000a28 <HAL_RCC_OscConfig+0x294>)
 8000852:	681b      	ldr	r3, [r3, #0]
 8000854:	f013 0f02 	tst.w	r3, #2
 8000858:	d154      	bne.n	8000904 <HAL_RCC_OscConfig+0x170>
 800085a:	f7ff ff0f 	bl	800067c <HAL_GetTick>
 800085e:	1b40      	subs	r0, r0, r5
 8000860:	2802      	cmp	r0, #2
 8000862:	d9f5      	bls.n	8000850 <HAL_RCC_OscConfig+0xbc>
 8000864:	2003      	movs	r0, #3
 8000866:	e17f      	b.n	8000b68 <HAL_RCC_OscConfig+0x3d4>
 8000868:	4a6f      	ldr	r2, [pc, #444]	@ (8000a28 <HAL_RCC_OscConfig+0x294>)
 800086a:	6813      	ldr	r3, [r2, #0]
 800086c:	f443 3380 	orr.w	r3, r3, #65536	@ 0x10000
 8000870:	6013      	str	r3, [r2, #0]
 8000872:	e7b5      	b.n	80007e0 <HAL_RCC_OscConfig+0x4c>
 8000874:	4b6c      	ldr	r3, [pc, #432]	@ (8000a28 <HAL_RCC_OscConfig+0x294>)
 8000876:	681a      	ldr	r2, [r3, #0]
 8000878:	f442 2280 	orr.w	r2, r2, #262144	@ 0x40000
 800087c:	601a      	str	r2, [r3, #0]
 800087e:	681a      	ldr	r2, [r3, #0]
 8000880:	f442 3280 	orr.w	r2, r2, #65536	@ 0x10000
 8000884:	601a      	str	r2, [r3, #0]
 8000886:	e7ab      	b.n	80007e0 <HAL_RCC_OscConfig+0x4c>
 8000888:	f7ff fef8 	bl	800067c <HAL_GetTick>
 800088c:	4605      	mov	r5, r0
 800088e:	4b66      	ldr	r3, [pc, #408]	@ (8000a28 <HAL_RCC_OscConfig+0x294>)
 8000890:	681b      	ldr	r3, [r3, #0]
 8000892:	f413 3f00 	tst.w	r3, #131072	@ 0x20000
 8000896:	d0c3      	beq.n	8000820 <HAL_RCC_OscConfig+0x8c>
 8000898:	f7ff fef0 	bl	800067c <HAL_GetTick>
 800089c:	1b40      	subs	r0, r0, r5
 800089e:	2864      	cmp	r0, #100	@ 0x64
 80008a0:	d9f5      	bls.n	800088e <HAL_RCC_OscConfig+0xfa>
 80008a2:	2003      	movs	r0, #3
 80008a4:	e160      	b.n	8000b68 <HAL_RCC_OscConfig+0x3d4>
 80008a6:	4b60      	ldr	r3, [pc, #384]	@ (8000a28 <HAL_RCC_OscConfig+0x294>)
 80008a8:	685b      	ldr	r3, [r3, #4]
 80008aa:	f413 0f80 	tst.w	r3, #4194304	@ 0x400000
 80008ae:	d1c6      	bne.n	800083e <HAL_RCC_OscConfig+0xaa>
 80008b0:	4b5d      	ldr	r3, [pc, #372]	@ (8000a28 <HAL_RCC_OscConfig+0x294>)
 80008b2:	681b      	ldr	r3, [r3, #0]
 80008b4:	f013 0f02 	tst.w	r3, #2
 80008b8:	d003      	beq.n	80008c2 <HAL_RCC_OscConfig+0x12e>
 80008ba:	68e3      	ldr	r3, [r4, #12]
 80008bc:	2b01      	cmp	r3, #1
 80008be:	f040 8150 	bne.w	8000b62 <HAL_RCC_OscConfig+0x3ce>
 80008c2:	4a59      	ldr	r2, [pc, #356]	@ (8000a28 <HAL_RCC_OscConfig+0x294>)
 80008c4:	6813      	ldr	r3, [r2, #0]
 80008c6:	f023 03f8 	bic.w	r3, r3, #248	@ 0xf8
 80008ca:	6921      	ldr	r1, [r4, #16]
 80008cc:	ea43 03c1 	orr.w	r3, r3, r1, lsl #3
 80008d0:	6013      	str	r3, [r2, #0]
 80008d2:	6823      	ldr	r3, [r4, #0]
 80008d4:	f013 0f08 	tst.w	r3, #8
 80008d8:	d042      	beq.n	8000960 <HAL_RCC_OscConfig+0x1cc>
 80008da:	6963      	ldr	r3, [r4, #20]
 80008dc:	b36b      	cbz	r3, 800093a <HAL_RCC_OscConfig+0x1a6>
 80008de:	4b53      	ldr	r3, [pc, #332]	@ (8000a2c <HAL_RCC_OscConfig+0x298>)
 80008e0:	2201      	movs	r2, #1
 80008e2:	f8c3 2e80 	str.w	r2, [r3, #3712]	@ 0xe80
 80008e6:	f7ff fec9 	bl	800067c <HAL_GetTick>
 80008ea:	4605      	mov	r5, r0
 80008ec:	4b4e      	ldr	r3, [pc, #312]	@ (8000a28 <HAL_RCC_OscConfig+0x294>)
 80008ee:	6f5b      	ldr	r3, [r3, #116]	@ 0x74
 80008f0:	f013 0f02 	tst.w	r3, #2
 80008f4:	d134      	bne.n	8000960 <HAL_RCC_OscConfig+0x1cc>
 80008f6:	f7ff fec1 	bl	800067c <HAL_GetTick>
 80008fa:	1b40      	subs	r0, r0, r5
 80008fc:	2802      	cmp	r0, #2
 80008fe:	d9f5      	bls.n	80008ec <HAL_RCC_OscConfig+0x158>
 8000900:	2003      	movs	r0, #3
 8000902:	e131      	b.n	8000b68 <HAL_RCC_OscConfig+0x3d4>
 8000904:	4a48      	ldr	r2, [pc, #288]	@ (8000a28 <HAL_RCC_OscConfig+0x294>)
 8000906:	6813      	ldr	r3, [r2, #0]
 8000908:	f023 03f8 	bic.w	r3, r3, #248	@ 0xf8
 800090c:	6921      	ldr	r1, [r4, #16]
 800090e:	ea43 03c1 	orr.w	r3, r3, r1, lsl #3
 8000912:	6013      	str	r3, [r2, #0]
 8000914:	e7dd      	b.n	80008d2 <HAL_RCC_OscConfig+0x13e>
 8000916:	4b45      	ldr	r3, [pc, #276]	@ (8000a2c <HAL_RCC_OscConfig+0x298>)
 8000918:	2200      	movs	r2, #0
 800091a:	601a      	str	r2, [r3, #0]
 800091c:	f7ff feae 	bl	800067c <HAL_GetTick>
 8000920:	4605      	mov	r5, r0
 8000922:	4b41      	ldr	r3, [pc, #260]	@ (8000a28 <HAL_RCC_OscConfig+0x294>)
 8000924:	681b      	ldr	r3, [r3, #0]
 8000926:	f013 0f02 	tst.w	r3, #2
 800092a:	d0d2      	beq.n	80008d2 <HAL_RCC_OscConfig+0x13e>
 800092c:	f7ff fea6 	bl	800067c <HAL_GetTick>
 8000930:	1b40      	subs	r0, r0, r5
 8000932:	2802      	cmp	r0, #2
 8000934:	d9f5      	bls.n	8000922 <HAL_RCC_OscConfig+0x18e>
 8000936:	2003      	movs	r0, #3
 8000938:	e116      	b.n	8000b68 <HAL_RCC_OscConfig+0x3d4>
 800093a:	4b3c      	ldr	r3, [pc, #240]	@ (8000a2c <HAL_RCC_OscConfig+0x298>)
 800093c:	2200      	movs	r2, #0
 800093e:	f8c3 2e80 	str.w	r2, [r3, #3712]	@ 0xe80
 8000942:	f7ff fe9b 	bl	800067c <HAL_GetTick>
 8000946:	4605      	mov	r5, r0
 8000948:	4b37      	ldr	r3, [pc, #220]	@ (8000a28 <HAL_RCC_OscConfig+0x294>)
 800094a:	6f5b      	ldr	r3, [r3, #116]	@ 0x74
 800094c:	f013 0f02 	tst.w	r3, #2
 8000950:	d006      	beq.n	8000960 <HAL_RCC_OscConfig+0x1cc>
 8000952:	f7ff fe93 	bl	800067c <HAL_GetTick>
 8000956:	1b40      	subs	r0, r0, r5
 8000958:	2802      	cmp	r0, #2
 800095a:	d9f5      	bls.n	8000948 <HAL_RCC_OscConfig+0x1b4>
 800095c:	2003      	movs	r0, #3
 800095e:	e103      	b.n	8000b68 <HAL_RCC_OscConfig+0x3d4>
 8000960:	6823      	ldr	r3, [r4, #0]
 8000962:	f013 0f04 	tst.w	r3, #4
 8000966:	d077      	beq.n	8000a58 <HAL_RCC_OscConfig+0x2c4>
 8000968:	4b2f      	ldr	r3, [pc, #188]	@ (8000a28 <HAL_RCC_OscConfig+0x294>)
 800096a:	6c1b      	ldr	r3, [r3, #64]	@ 0x40
 800096c:	f013 5f80 	tst.w	r3, #268435456	@ 0x10000000
 8000970:	d133      	bne.n	80009da <HAL_RCC_OscConfig+0x246>
 8000972:	2300      	movs	r3, #0
 8000974:	9301      	str	r3, [sp, #4]
 8000976:	4b2c      	ldr	r3, [pc, #176]	@ (8000a28 <HAL_RCC_OscConfig+0x294>)
 8000978:	6c1a      	ldr	r2, [r3, #64]	@ 0x40
 800097a:	f042 5280 	orr.w	r2, r2, #268435456	@ 0x10000000
 800097e:	641a      	str	r2, [r3, #64]	@ 0x40
 8000980:	6c1b      	ldr	r3, [r3, #64]	@ 0x40
 8000982:	f003 5380 	and.w	r3, r3, #268435456	@ 0x10000000
 8000986:	9301      	str	r3, [sp, #4]
 8000988:	9b01      	ldr	r3, [sp, #4]
 800098a:	2501      	movs	r5, #1
 800098c:	4b28      	ldr	r3, [pc, #160]	@ (8000a30 <HAL_RCC_OscConfig+0x29c>)
 800098e:	681b      	ldr	r3, [r3, #0]
 8000990:	f413 7f80 	tst.w	r3, #256	@ 0x100
 8000994:	d023      	beq.n	80009de <HAL_RCC_OscConfig+0x24a>
 8000996:	68a3      	ldr	r3, [r4, #8]
 8000998:	2b01      	cmp	r3, #1
 800099a:	d034      	beq.n	8000a06 <HAL_RCC_OscConfig+0x272>
 800099c:	2b05      	cmp	r3, #5
 800099e:	d038      	beq.n	8000a12 <HAL_RCC_OscConfig+0x27e>
 80009a0:	4b21      	ldr	r3, [pc, #132]	@ (8000a28 <HAL_RCC_OscConfig+0x294>)
 80009a2:	6f1a      	ldr	r2, [r3, #112]	@ 0x70
 80009a4:	f022 0201 	bic.w	r2, r2, #1
 80009a8:	671a      	str	r2, [r3, #112]	@ 0x70
 80009aa:	6f1a      	ldr	r2, [r3, #112]	@ 0x70
 80009ac:	f022 0204 	bic.w	r2, r2, #4
 80009b0:	671a      	str	r2, [r3, #112]	@ 0x70
 80009b2:	68a3      	ldr	r3, [r4, #8]
 80009b4:	2b00      	cmp	r3, #0
 80009b6:	d03d      	beq.n	8000a34 <HAL_RCC_OscConfig+0x2a0>
 80009b8:	f7ff fe60 	bl	800067c <HAL_GetTick>
 80009bc:	4606      	mov	r6, r0
 80009be:	4b1a      	ldr	r3, [pc, #104]	@ (8000a28 <HAL_RCC_OscConfig+0x294>)
 80009c0:	6f1b      	ldr	r3, [r3, #112]	@ 0x70
 80009c2:	f013 0f02 	tst.w	r3, #2
 80009c6:	d146      	bne.n	8000a56 <HAL_RCC_OscConfig+0x2c2>
 80009c8:	f7ff fe58 	bl	800067c <HAL_GetTick>
 80009cc:	1b80      	subs	r0, r0, r6
 80009ce:	f241 3388 	movw	r3, #5000	@ 0x1388
 80009d2:	4298      	cmp	r0, r3
 80009d4:	d9f3      	bls.n	80009be <HAL_RCC_OscConfig+0x22a>
 80009d6:	2003      	movs	r0, #3
 80009d8:	e0c6      	b.n	8000b68 <HAL_RCC_OscConfig+0x3d4>
 80009da:	2500      	movs	r5, #0
 80009dc:	e7d6      	b.n	800098c <HAL_RCC_OscConfig+0x1f8>
 80009de:	4a14      	ldr	r2, [pc, #80]	@ (8000a30 <HAL_RCC_OscConfig+0x29c>)
 80009e0:	6813      	ldr	r3, [r2, #0]
 80009e2:	f443 7380 	orr.w	r3, r3, #256	@ 0x100
 80009e6:	6013      	str	r3, [r2, #0]
 80009e8:	f7ff fe48 	bl	800067c <HAL_GetTick>
 80009ec:	4606      	mov	r6, r0
 80009ee:	4b10      	ldr	r3, [pc, #64]	@ (8000a30 <HAL_RCC_OscConfig+0x29c>)
 80009f0:	681b      	ldr	r3, [r3, #0]
 80009f2:	f413 7f80 	tst.w	r3, #256	@ 0x100
 80009f6:	d1ce      	bne.n	8000996 <HAL_RCC_OscConfig+0x202>
 80009f8:	f7ff fe40 	bl	800067c <HAL_GetTick>
 80009fc:	1b80      	subs	r0, r0, r6
 80009fe:	2802      	cmp	r0, #2
 8000a00:	d9f5      	bls.n	80009ee <HAL_RCC_OscConfig+0x25a>
 8000a02:	2003      	movs	r0, #3
 8000a04:	e0b0      	b.n	8000b68 <HAL_RCC_OscConfig+0x3d4>
 8000a06:	4a08      	ldr	r2, [pc, #32]	@ (8000a28 <HAL_RCC_OscConfig+0x294>)
 8000a08:	6f13      	ldr	r3, [r2, #112]	@ 0x70
 8000a0a:	f043 0301 	orr.w	r3, r3, #1
 8000a0e:	6713      	str	r3, [r2, #112]	@ 0x70
 8000a10:	e7cf      	b.n	80009b2 <HAL_RCC_OscConfig+0x21e>
 8000a12:	4b05      	ldr	r3, [pc, #20]	@ (8000a28 <HAL_RCC_OscConfig+0x294>)
 8000a14:	6f1a      	ldr	r2, [r3, #112]	@ 0x70
 8000a16:	f042 0204 	orr.w	r2, r2, #4
 8000a1a:	671a      	str	r2, [r3, #112]	@ 0x70
 8000a1c:	6f1a      	ldr	r2, [r3, #112]	@ 0x70
 8000a1e:	f042 0201 	orr.w	r2, r2, #1
 8000a22:	671a      	str	r2, [r3, #112]	@ 0x70
 8000a24:	e7c5      	b.n	80009b2 <HAL_RCC_OscConfig+0x21e>
 8000a26:	bf00      	nop
 8000a28:	40023800 	.word	0x40023800
 8000a2c:	42470000 	.word	0x42470000
 8000a30:	40007000 	.word	0x40007000
 8000a34:	f7ff fe22 	bl	800067c <HAL_GetTick>
 8000a38:	4606      	mov	r6, r0
 8000a3a:	4b52      	ldr	r3, [pc, #328]	@ (8000b84 <HAL_RCC_OscConfig+0x3f0>)
 8000a3c:	6f1b      	ldr	r3, [r3, #112]	@ 0x70
 8000a3e:	f013 0f02 	tst.w	r3, #2
 8000a42:	d008      	beq.n	8000a56 <HAL_RCC_OscConfig+0x2c2>
 8000a44:	f7ff fe1a 	bl	800067c <HAL_GetTick>
 8000a48:	1b80      	subs	r0, r0, r6
 8000a4a:	f241 3388 	movw	r3, #5000	@ 0x1388
 8000a4e:	4298      	cmp	r0, r3
 8000a50:	d9f3      	bls.n	8000a3a <HAL_RCC_OscConfig+0x2a6>
 8000a52:	2003      	movs	r0, #3
 8000a54:	e088      	b.n	8000b68 <HAL_RCC_OscConfig+0x3d4>
 8000a56:	b9ed      	cbnz	r5, 8000a94 <HAL_RCC_OscConfig+0x300>
 8000a58:	69a3      	ldr	r3, [r4, #24]
 8000a5a:	2b00      	cmp	r3, #0
 8000a5c:	f000 8083 	beq.w	8000b66 <HAL_RCC_OscConfig+0x3d2>
 8000a60:	4a48      	ldr	r2, [pc, #288]	@ (8000b84 <HAL_RCC_OscConfig+0x3f0>)
 8000a62:	6892      	ldr	r2, [r2, #8]
 8000a64:	f002 020c 	and.w	r2, r2, #12
 8000a68:	2a08      	cmp	r2, #8
 8000a6a:	d051      	beq.n	8000b10 <HAL_RCC_OscConfig+0x37c>
 8000a6c:	2b02      	cmp	r3, #2
 8000a6e:	d017      	beq.n	8000aa0 <HAL_RCC_OscConfig+0x30c>
 8000a70:	4b45      	ldr	r3, [pc, #276]	@ (8000b88 <HAL_RCC_OscConfig+0x3f4>)
 8000a72:	2200      	movs	r2, #0
 8000a74:	661a      	str	r2, [r3, #96]	@ 0x60
 8000a76:	f7ff fe01 	bl	800067c <HAL_GetTick>
 8000a7a:	4604      	mov	r4, r0
 8000a7c:	4b41      	ldr	r3, [pc, #260]	@ (8000b84 <HAL_RCC_OscConfig+0x3f0>)
 8000a7e:	681b      	ldr	r3, [r3, #0]
 8000a80:	f013 7f00 	tst.w	r3, #33554432	@ 0x2000000
 8000a84:	d042      	beq.n	8000b0c <HAL_RCC_OscConfig+0x378>
 8000a86:	f7ff fdf9 	bl	800067c <HAL_GetTick>
 8000a8a:	1b00      	subs	r0, r0, r4
 8000a8c:	2802      	cmp	r0, #2
 8000a8e:	d9f5      	bls.n	8000a7c <HAL_RCC_OscConfig+0x2e8>
 8000a90:	2003      	movs	r0, #3
 8000a92:	e069      	b.n	8000b68 <HAL_RCC_OscConfig+0x3d4>
 8000a94:	4a3b      	ldr	r2, [pc, #236]	@ (8000b84 <HAL_RCC_OscConfig+0x3f0>)
 8000a96:	6c13      	ldr	r3, [r2, #64]	@ 0x40
 8000a98:	f023 5380 	bic.w	r3, r3, #268435456	@ 0x10000000
 8000a9c:	6413      	str	r3, [r2, #64]	@ 0x40
 8000a9e:	e7db      	b.n	8000a58 <HAL_RCC_OscConfig+0x2c4>
 8000aa0:	4b39      	ldr	r3, [pc, #228]	@ (8000b88 <HAL_RCC_OscConfig+0x3f4>)
 8000aa2:	2200      	movs	r2, #0
 8000aa4:	661a      	str	r2, [r3, #96]	@ 0x60
 8000aa6:	f7ff fde9 	bl	800067c <HAL_GetTick>
 8000aaa:	4605      	mov	r5, r0
 8000aac:	4b35      	ldr	r3, [pc, #212]	@ (8000b84 <HAL_RCC_OscConfig+0x3f0>)
 8000aae:	681b      	ldr	r3, [r3, #0]
 8000ab0:	f013 7f00 	tst.w	r3, #33554432	@ 0x2000000
 8000ab4:	d006      	beq.n	8000ac4 <HAL_RCC_OscConfig+0x330>
 8000ab6:	f7ff fde1 	bl	800067c <HAL_GetTick>
 8000aba:	1b40      	subs	r0, r0, r5
 8000abc:	2802      	cmp	r0, #2
 8000abe:	d9f5      	bls.n	8000aac <HAL_RCC_OscConfig+0x318>
 8000ac0:	2003      	movs	r0, #3
 8000ac2:	e051      	b.n	8000b68 <HAL_RCC_OscConfig+0x3d4>
 8000ac4:	69e3      	ldr	r3, [r4, #28]
 8000ac6:	6a22      	ldr	r2, [r4, #32]
 8000ac8:	4313      	orrs	r3, r2
 8000aca:	6a62      	ldr	r2, [r4, #36]	@ 0x24
 8000acc:	ea43 1382 	orr.w	r3, r3, r2, lsl #6
 8000ad0:	6aa2      	ldr	r2, [r4, #40]	@ 0x28
 8000ad2:	0852      	lsrs	r2, r2, #1
 8000ad4:	3a01      	subs	r2, #1
 8000ad6:	ea43 4302 	orr.w	r3, r3, r2, lsl #16
 8000ada:	6ae2      	ldr	r2, [r4, #44]	@ 0x2c
 8000adc:	ea43 6302 	orr.w	r3, r3, r2, lsl #24
 8000ae0:	4a28      	ldr	r2, [pc, #160]	@ (8000b84 <HAL_RCC_OscConfig+0x3f0>)
 8000ae2:	6053      	str	r3, [r2, #4]
 8000ae4:	4b28      	ldr	r3, [pc, #160]	@ (8000b88 <HAL_RCC_OscConfig+0x3f4>)
 8000ae6:	2201      	movs	r2, #1
 8000ae8:	661a      	str	r2, [r3, #96]	@ 0x60
 8000aea:	f7ff fdc7 	bl	800067c <HAL_GetTick>
 8000aee:	4604      	mov	r4, r0
 8000af0:	4b24      	ldr	r3, [pc, #144]	@ (8000b84 <HAL_RCC_OscConfig+0x3f0>)
 8000af2:	681b      	ldr	r3, [r3, #0]
 8000af4:	f013 7f00 	tst.w	r3, #33554432	@ 0x2000000
 8000af8:	d106      	bne.n	8000b08 <HAL_RCC_OscConfig+0x374>
 8000afa:	f7ff fdbf 	bl	800067c <HAL_GetTick>
 8000afe:	1b00      	subs	r0, r0, r4
 8000b00:	2802      	cmp	r0, #2
 8000b02:	d9f5      	bls.n	8000af0 <HAL_RCC_OscConfig+0x35c>
 8000b04:	2003      	movs	r0, #3
 8000b06:	e02f      	b.n	8000b68 <HAL_RCC_OscConfig+0x3d4>
 8000b08:	2000      	movs	r0, #0
 8000b0a:	e02d      	b.n	8000b68 <HAL_RCC_OscConfig+0x3d4>
 8000b0c:	2000      	movs	r0, #0
 8000b0e:	e02b      	b.n	8000b68 <HAL_RCC_OscConfig+0x3d4>
 8000b10:	2b01      	cmp	r3, #1
 8000b12:	d02b      	beq.n	8000b6c <HAL_RCC_OscConfig+0x3d8>
 8000b14:	4b1b      	ldr	r3, [pc, #108]	@ (8000b84 <HAL_RCC_OscConfig+0x3f0>)
 8000b16:	685b      	ldr	r3, [r3, #4]
 8000b18:	f403 0180 	and.w	r1, r3, #4194304	@ 0x400000
 8000b1c:	69e2      	ldr	r2, [r4, #28]
 8000b1e:	4291      	cmp	r1, r2
 8000b20:	d126      	bne.n	8000b70 <HAL_RCC_OscConfig+0x3dc>
 8000b22:	f003 023f 	and.w	r2, r3, #63	@ 0x3f
 8000b26:	6a21      	ldr	r1, [r4, #32]
 8000b28:	428a      	cmp	r2, r1
 8000b2a:	d123      	bne.n	8000b74 <HAL_RCC_OscConfig+0x3e0>
 8000b2c:	6a61      	ldr	r1, [r4, #36]	@ 0x24
 8000b2e:	f647 72c0 	movw	r2, #32704	@ 0x7fc0
 8000b32:	401a      	ands	r2, r3
 8000b34:	ebb2 1f81 	cmp.w	r2, r1, lsl #6
 8000b38:	d11e      	bne.n	8000b78 <HAL_RCC_OscConfig+0x3e4>
 8000b3a:	f403 3140 	and.w	r1, r3, #196608	@ 0x30000
 8000b3e:	6aa2      	ldr	r2, [r4, #40]	@ 0x28
 8000b40:	0852      	lsrs	r2, r2, #1
 8000b42:	3a01      	subs	r2, #1
 8000b44:	ebb1 4f02 	cmp.w	r1, r2, lsl #16
 8000b48:	d118      	bne.n	8000b7c <HAL_RCC_OscConfig+0x3e8>
 8000b4a:	f003 6370 	and.w	r3, r3, #251658240	@ 0xf000000
 8000b4e:	6ae2      	ldr	r2, [r4, #44]	@ 0x2c
 8000b50:	ebb3 6f02 	cmp.w	r3, r2, lsl #24
 8000b54:	d114      	bne.n	8000b80 <HAL_RCC_OscConfig+0x3ec>
 8000b56:	2000      	movs	r0, #0
 8000b58:	e006      	b.n	8000b68 <HAL_RCC_OscConfig+0x3d4>
 8000b5a:	2001      	movs	r0, #1
 8000b5c:	4770      	bx	lr
 8000b5e:	2001      	movs	r0, #1
 8000b60:	e002      	b.n	8000b68 <HAL_RCC_OscConfig+0x3d4>
 8000b62:	2001      	movs	r0, #1
 8000b64:	e000      	b.n	8000b68 <HAL_RCC_OscConfig+0x3d4>
 8000b66:	2000      	movs	r0, #0
 8000b68:	b002      	add	sp, #8
 8000b6a:	bd70      	pop	{r4, r5, r6, pc}
 8000b6c:	2001      	movs	r0, #1
 8000b6e:	e7fb      	b.n	8000b68 <HAL_RCC_OscConfig+0x3d4>
 8000b70:	2001      	movs	r0, #1
 8000b72:	e7f9      	b.n	8000b68 <HAL_RCC_OscConfig+0x3d4>
 8000b74:	2001      	movs	r0, #1
 8000b76:	e7f7      	b.n	8000b68 <HAL_RCC_OscConfig+0x3d4>
 8000b78:	2001      	movs	r0, #1
 8000b7a:	e7f5      	b.n	8000b68 <HAL_RCC_OscConfig+0x3d4>
 8000b7c:	2001      	movs	r0, #1
 8000b7e:	e7f3      	b.n	8000b68 <HAL_RCC_OscConfig+0x3d4>
 8000b80:	2001      	movs	r0, #1
 8000b82:	e7f1      	b.n	8000b68 <HAL_RCC_OscConfig+0x3d4>
 8000b84:	40023800 	.word	0x40023800
 8000b88:	42470000 	.word	0x42470000

08000b8c <HAL_RCC_GetSysClockFreq>:
 8000b8c:	b508      	push	{r3, lr}
 8000b8e:	4b26      	ldr	r3, [pc, #152]	@ (8000c28 <HAL_RCC_GetSysClockFreq+0x9c>)
 8000b90:	689b      	ldr	r3, [r3, #8]
 8000b92:	f003 030c 	and.w	r3, r3, #12
 8000b96:	2b04      	cmp	r3, #4
 8000b98:	d041      	beq.n	8000c1e <HAL_RCC_GetSysClockFreq+0x92>
 8000b9a:	2b08      	cmp	r3, #8
 8000b9c:	d141      	bne.n	8000c22 <HAL_RCC_GetSysClockFreq+0x96>
 8000b9e:	4b22      	ldr	r3, [pc, #136]	@ (8000c28 <HAL_RCC_GetSysClockFreq+0x9c>)
 8000ba0:	685a      	ldr	r2, [r3, #4]
 8000ba2:	f002 023f 	and.w	r2, r2, #63	@ 0x3f
 8000ba6:	685b      	ldr	r3, [r3, #4]
 8000ba8:	f413 0f80 	tst.w	r3, #4194304	@ 0x400000
 8000bac:	d012      	beq.n	8000bd4 <HAL_RCC_GetSysClockFreq+0x48>
 8000bae:	4b1e      	ldr	r3, [pc, #120]	@ (8000c28 <HAL_RCC_GetSysClockFreq+0x9c>)
 8000bb0:	6859      	ldr	r1, [r3, #4]
 8000bb2:	f3c1 1188 	ubfx	r1, r1, #6, #9
 8000bb6:	481d      	ldr	r0, [pc, #116]	@ (8000c2c <HAL_RCC_GetSysClockFreq+0xa0>)
 8000bb8:	2300      	movs	r3, #0
 8000bba:	fba1 0100 	umull	r0, r1, r1, r0
 8000bbe:	f7ff fb03 	bl	80001c8 <__aeabi_uldivmod>
 8000bc2:	4b19      	ldr	r3, [pc, #100]	@ (8000c28 <HAL_RCC_GetSysClockFreq+0x9c>)
 8000bc4:	685b      	ldr	r3, [r3, #4]
 8000bc6:	f3c3 4301 	ubfx	r3, r3, #16, #2
 8000bca:	3301      	adds	r3, #1
 8000bcc:	005b      	lsls	r3, r3, #1
 8000bce:	fbb0 f0f3 	udiv	r0, r0, r3
 8000bd2:	bd08      	pop	{r3, pc}
 8000bd4:	4b14      	ldr	r3, [pc, #80]	@ (8000c28 <HAL_RCC_GetSysClockFreq+0x9c>)
 8000bd6:	6858      	ldr	r0, [r3, #4]
 8000bd8:	f3c0 1088 	ubfx	r0, r0, #6, #9
 8000bdc:	ea4f 1c40 	mov.w	ip, r0, lsl #5
 8000be0:	ebbc 0c00 	subs.w	ip, ip, r0
 8000be4:	eb6e 0e0e 	sbc.w	lr, lr, lr
 8000be8:	ea4f 138e 	mov.w	r3, lr, lsl #6
 8000bec:	ea43 639c 	orr.w	r3, r3, ip, lsr #26
 8000bf0:	ea4f 118c 	mov.w	r1, ip, lsl #6
 8000bf4:	ebb1 010c 	subs.w	r1, r1, ip
 8000bf8:	eb63 030e 	sbc.w	r3, r3, lr
 8000bfc:	00db      	lsls	r3, r3, #3
 8000bfe:	ea43 7351 	orr.w	r3, r3, r1, lsr #29
 8000c02:	00c9      	lsls	r1, r1, #3
 8000c04:	eb11 0c00 	adds.w	ip, r1, r0
 8000c08:	f143 0300 	adc.w	r3, r3, #0
 8000c0c:	0299      	lsls	r1, r3, #10
 8000c0e:	2300      	movs	r3, #0
 8000c10:	ea4f 208c 	mov.w	r0, ip, lsl #10
 8000c14:	ea41 519c 	orr.w	r1, r1, ip, lsr #22
 8000c18:	f7ff fad6 	bl	80001c8 <__aeabi_uldivmod>
 8000c1c:	e7d1      	b.n	8000bc2 <HAL_RCC_GetSysClockFreq+0x36>
 8000c1e:	4803      	ldr	r0, [pc, #12]	@ (8000c2c <HAL_RCC_GetSysClockFreq+0xa0>)
 8000c20:	e7d7      	b.n	8000bd2 <HAL_RCC_GetSysClockFreq+0x46>
 8000c22:	4803      	ldr	r0, [pc, #12]	@ (8000c30 <HAL_RCC_GetSysClockFreq+0xa4>)
 8000c24:	e7d5      	b.n	8000bd2 <HAL_RCC_GetSysClockFreq+0x46>
 8000c26:	bf00      	nop
 8000c28:	40023800 	.word	0x40023800
 8000c2c:	017d7840 	.word	0x017d7840
 8000c30:	00f42400 	.word	0x00f42400

08000c34 <HAL_RCC_ClockConfig>:
 8000c34:	2800      	cmp	r0, #0
 8000c36:	f000 809b 	beq.w	8000d70 <HAL_RCC_ClockConfig+0x13c>
 8000c3a:	b570      	push	{r4, r5, r6, lr}
 8000c3c:	460d      	mov	r5, r1
 8000c3e:	4604      	mov	r4, r0
 8000c40:	4b4f      	ldr	r3, [pc, #316]	@ (8000d80 <HAL_RCC_ClockConfig+0x14c>)
 8000c42:	681b      	ldr	r3, [r3, #0]
 8000c44:	f003 0307 	and.w	r3, r3, #7
 8000c48:	428b      	cmp	r3, r1
 8000c4a:	d208      	bcs.n	8000c5e <HAL_RCC_ClockConfig+0x2a>
 8000c4c:	b2cb      	uxtb	r3, r1
 8000c4e:	4a4c      	ldr	r2, [pc, #304]	@ (8000d80 <HAL_RCC_ClockConfig+0x14c>)
 8000c50:	7013      	strb	r3, [r2, #0]
 8000c52:	6813      	ldr	r3, [r2, #0]
 8000c54:	f003 0307 	and.w	r3, r3, #7
 8000c58:	428b      	cmp	r3, r1
 8000c5a:	f040 808b 	bne.w	8000d74 <HAL_RCC_ClockConfig+0x140>
 8000c5e:	6823      	ldr	r3, [r4, #0]
 8000c60:	f013 0f02 	tst.w	r3, #2
 8000c64:	d017      	beq.n	8000c96 <HAL_RCC_ClockConfig+0x62>
 8000c66:	f013 0f04 	tst.w	r3, #4
 8000c6a:	d004      	beq.n	8000c76 <HAL_RCC_ClockConfig+0x42>
 8000c6c:	4a45      	ldr	r2, [pc, #276]	@ (8000d84 <HAL_RCC_ClockConfig+0x150>)
 8000c6e:	6893      	ldr	r3, [r2, #8]
 8000c70:	f443 53e0 	orr.w	r3, r3, #7168	@ 0x1c00
 8000c74:	6093      	str	r3, [r2, #8]
 8000c76:	6823      	ldr	r3, [r4, #0]
 8000c78:	f013 0f08 	tst.w	r3, #8
 8000c7c:	d004      	beq.n	8000c88 <HAL_RCC_ClockConfig+0x54>
 8000c7e:	4a41      	ldr	r2, [pc, #260]	@ (8000d84 <HAL_RCC_ClockConfig+0x150>)
 8000c80:	6893      	ldr	r3, [r2, #8]
 8000c82:	f443 4360 	orr.w	r3, r3, #57344	@ 0xe000
 8000c86:	6093      	str	r3, [r2, #8]
 8000c88:	4a3e      	ldr	r2, [pc, #248]	@ (8000d84 <HAL_RCC_ClockConfig+0x150>)
 8000c8a:	6893      	ldr	r3, [r2, #8]
 8000c8c:	f023 03f0 	bic.w	r3, r3, #240	@ 0xf0
 8000c90:	68a1      	ldr	r1, [r4, #8]
 8000c92:	430b      	orrs	r3, r1
 8000c94:	6093      	str	r3, [r2, #8]
 8000c96:	6823      	ldr	r3, [r4, #0]
 8000c98:	f013 0f01 	tst.w	r3, #1
 8000c9c:	d032      	beq.n	8000d04 <HAL_RCC_ClockConfig+0xd0>
 8000c9e:	6863      	ldr	r3, [r4, #4]
 8000ca0:	2b01      	cmp	r3, #1
 8000ca2:	d021      	beq.n	8000ce8 <HAL_RCC_ClockConfig+0xb4>
 8000ca4:	1e9a      	subs	r2, r3, #2
 8000ca6:	2a01      	cmp	r2, #1
 8000ca8:	d925      	bls.n	8000cf6 <HAL_RCC_ClockConfig+0xc2>
 8000caa:	4a36      	ldr	r2, [pc, #216]	@ (8000d84 <HAL_RCC_ClockConfig+0x150>)
 8000cac:	6812      	ldr	r2, [r2, #0]
 8000cae:	f012 0f02 	tst.w	r2, #2
 8000cb2:	d061      	beq.n	8000d78 <HAL_RCC_ClockConfig+0x144>
 8000cb4:	4933      	ldr	r1, [pc, #204]	@ (8000d84 <HAL_RCC_ClockConfig+0x150>)
 8000cb6:	688a      	ldr	r2, [r1, #8]
 8000cb8:	f022 0203 	bic.w	r2, r2, #3
 8000cbc:	4313      	orrs	r3, r2
 8000cbe:	608b      	str	r3, [r1, #8]
 8000cc0:	f7ff fcdc 	bl	800067c <HAL_GetTick>
 8000cc4:	4606      	mov	r6, r0
 8000cc6:	4b2f      	ldr	r3, [pc, #188]	@ (8000d84 <HAL_RCC_ClockConfig+0x150>)
 8000cc8:	689b      	ldr	r3, [r3, #8]
 8000cca:	f003 030c 	and.w	r3, r3, #12
 8000cce:	6862      	ldr	r2, [r4, #4]
 8000cd0:	ebb3 0f82 	cmp.w	r3, r2, lsl #2
 8000cd4:	d016      	beq.n	8000d04 <HAL_RCC_ClockConfig+0xd0>
 8000cd6:	f7ff fcd1 	bl	800067c <HAL_GetTick>
 8000cda:	1b80      	subs	r0, r0, r6
 8000cdc:	f241 3388 	movw	r3, #5000	@ 0x1388
 8000ce0:	4298      	cmp	r0, r3
 8000ce2:	d9f0      	bls.n	8000cc6 <HAL_RCC_ClockConfig+0x92>
 8000ce4:	2003      	movs	r0, #3
 8000ce6:	e042      	b.n	8000d6e <HAL_RCC_ClockConfig+0x13a>
 8000ce8:	4a26      	ldr	r2, [pc, #152]	@ (8000d84 <HAL_RCC_ClockConfig+0x150>)
 8000cea:	6812      	ldr	r2, [r2, #0]
 8000cec:	f412 3f00 	tst.w	r2, #131072	@ 0x20000
 8000cf0:	d1e0      	bne.n	8000cb4 <HAL_RCC_ClockConfig+0x80>
 8000cf2:	2001      	movs	r0, #1
 8000cf4:	e03b      	b.n	8000d6e <HAL_RCC_ClockConfig+0x13a>
 8000cf6:	4a23      	ldr	r2, [pc, #140]	@ (8000d84 <HAL_RCC_ClockConfig+0x150>)
 8000cf8:	6812      	ldr	r2, [r2, #0]
 8000cfa:	f012 7f00 	tst.w	r2, #33554432	@ 0x2000000
 8000cfe:	d1d9      	bne.n	8000cb4 <HAL_RCC_ClockConfig+0x80>
 8000d00:	2001      	movs	r0, #1
 8000d02:	e034      	b.n	8000d6e <HAL_RCC_ClockConfig+0x13a>
 8000d04:	4b1e      	ldr	r3, [pc, #120]	@ (8000d80 <HAL_RCC_ClockConfig+0x14c>)
 8000d06:	681b      	ldr	r3, [r3, #0]
 8000d08:	f003 0307 	and.w	r3, r3, #7
 8000d0c:	42ab      	cmp	r3, r5
 8000d0e:	d907      	bls.n	8000d20 <HAL_RCC_ClockConfig+0xec>
 8000d10:	b2ea      	uxtb	r2, r5
 8000d12:	4b1b      	ldr	r3, [pc, #108]	@ (8000d80 <HAL_RCC_ClockConfig+0x14c>)
 8000d14:	701a      	strb	r2, [r3, #0]
 8000d16:	681b      	ldr	r3, [r3, #0]
 8000d18:	f003 0307 	and.w	r3, r3, #7
 8000d1c:	42ab      	cmp	r3, r5
 8000d1e:	d12d      	bne.n	8000d7c <HAL_RCC_ClockConfig+0x148>
 8000d20:	6823      	ldr	r3, [r4, #0]
 8000d22:	f013 0f04 	tst.w	r3, #4
 8000d26:	d006      	beq.n	8000d36 <HAL_RCC_ClockConfig+0x102>
 8000d28:	4a16      	ldr	r2, [pc, #88]	@ (8000d84 <HAL_RCC_ClockConfig+0x150>)
 8000d2a:	6893      	ldr	r3, [r2, #8]
 8000d2c:	f423 53e0 	bic.w	r3, r3, #7168	@ 0x1c00
 8000d30:	68e1      	ldr	r1, [r4, #12]
 8000d32:	430b      	orrs	r3, r1
 8000d34:	6093      	str	r3, [r2, #8]
 8000d36:	6823      	ldr	r3, [r4, #0]
 8000d38:	f013 0f08 	tst.w	r3, #8
 8000d3c:	d007      	beq.n	8000d4e <HAL_RCC_ClockConfig+0x11a>
 8000d3e:	4a11      	ldr	r2, [pc, #68]	@ (8000d84 <HAL_RCC_ClockConfig+0x150>)
 8000d40:	6893      	ldr	r3, [r2, #8]
 8000d42:	f423 4360 	bic.w	r3, r3, #57344	@ 0xe000
 8000d46:	6921      	ldr	r1, [r4, #16]
 8000d48:	ea43 03c1 	orr.w	r3, r3, r1, lsl #3
 8000d4c:	6093      	str	r3, [r2, #8]
 8000d4e:	f7ff ff1d 	bl	8000b8c <HAL_RCC_GetSysClockFreq>
 8000d52:	4b0c      	ldr	r3, [pc, #48]	@ (8000d84 <HAL_RCC_ClockConfig+0x150>)
 8000d54:	689b      	ldr	r3, [r3, #8]
 8000d56:	f3c3 1303 	ubfx	r3, r3, #4, #4
 8000d5a:	4a0b      	ldr	r2, [pc, #44]	@ (8000d88 <HAL_RCC_ClockConfig+0x154>)
 8000d5c:	5cd3      	ldrb	r3, [r2, r3]
 8000d5e:	40d8      	lsrs	r0, r3
 8000d60:	4b0a      	ldr	r3, [pc, #40]	@ (8000d8c <HAL_RCC_ClockConfig+0x158>)
 8000d62:	6018      	str	r0, [r3, #0]
 8000d64:	4b0a      	ldr	r3, [pc, #40]	@ (8000d90 <HAL_RCC_ClockConfig+0x15c>)
 8000d66:	6818      	ldr	r0, [r3, #0]
 8000d68:	f7ff fc3c 	bl	80005e4 <HAL_InitTick>
 8000d6c:	2000      	movs	r0, #0
 8000d6e:	bd70      	pop	{r4, r5, r6, pc}
 8000d70:	2001      	movs	r0, #1
 8000d72:	4770      	bx	lr
 8000d74:	2001      	movs	r0, #1
 8000d76:	e7fa      	b.n	8000d6e <HAL_RCC_ClockConfig+0x13a>
 8000d78:	2001      	movs	r0, #1
 8000d7a:	e7f8      	b.n	8000d6e <HAL_RCC_ClockConfig+0x13a>
 8000d7c:	2001      	movs	r0, #1
 8000d7e:	e7f6      	b.n	8000d6e <HAL_RCC_ClockConfig+0x13a>
 8000d80:	40023c00 	.word	0x40023c00
 8000d84:	40023800 	.word	0x40023800
 8000d88:	08000e84 	.word	0x08000e84
 8000d8c:	20000008 	.word	0x20000008
 8000d90:	20000004 	.word	0x20000004

08000d94 <NMI_Handler>:
 8000d94:	e7fe      	b.n	8000d94 <NMI_Handler>

08000d96 <HardFault_Handler>:
 8000d96:	e7fe      	b.n	8000d96 <HardFault_Handler>

08000d98 <MemManage_Handler>:
 8000d98:	e7fe      	b.n	8000d98 <MemManage_Handler>

08000d9a <BusFault_Handler>:
 8000d9a:	e7fe      	b.n	8000d9a <BusFault_Handler>

08000d9c <UsageFault_Handler>:
 8000d9c:	e7fe      	b.n	8000d9c <UsageFault_Handler>

08000d9e <SVC_Handler>:
 8000d9e:	4770      	bx	lr

08000da0 <DebugMon_Handler>:
 8000da0:	4770      	bx	lr

08000da2 <PendSV_Handler>:
 8000da2:	4770      	bx	lr

08000da4 <SysTick_Handler>:
 8000da4:	b508      	push	{r3, lr}
 8000da6:	f7ff fc5d 	bl	8000664 <HAL_IncTick>
 8000daa:	bd08      	pop	{r3, pc}

08000dac <SystemInit>:
 8000dac:	4a03      	ldr	r2, [pc, #12]	@ (8000dbc <SystemInit+0x10>)
 8000dae:	f8d2 3088 	ldr.w	r3, [r2, #136]	@ 0x88
 8000db2:	f443 0370 	orr.w	r3, r3, #15728640	@ 0xf00000
 8000db6:	f8c2 3088 	str.w	r3, [r2, #136]	@ 0x88
 8000dba:	4770      	bx	lr
 8000dbc:	e000ed00 	.word	0xe000ed00

08000dc0 <Reset_Handler>:
 8000dc0:	f8df d034 	ldr.w	sp, [pc, #52]	@ 8000df8 <LoopFillZerobss+0xe>
 8000dc4:	f7ff fff2 	bl	8000dac <SystemInit>
 8000dc8:	480c      	ldr	r0, [pc, #48]	@ (8000dfc <LoopFillZerobss+0x12>)
 8000dca:	490d      	ldr	r1, [pc, #52]	@ (8000e00 <LoopFillZerobss+0x16>)
 8000dcc:	4a0d      	ldr	r2, [pc, #52]	@ (8000e04 <LoopFillZerobss+0x1a>)
 8000dce:	2300      	movs	r3, #0
 8000dd0:	e002      	b.n	8000dd8 <LoopCopyDataInit>

08000dd2 <CopyDataInit>:
 8000dd2:	58d4      	ldr	r4, [r2, r3]
 8000dd4:	50c4      	str	r4, [r0, r3]
 8000dd6:	3304      	adds	r3, #4

08000dd8 <LoopCopyDataInit>:
 8000dd8:	18c4      	adds	r4, r0, r3
 8000dda:	428c      	cmp	r4, r1
 8000ddc:	d3f9      	bcc.n	8000dd2 <CopyDataInit>
 8000dde:	4a0a      	ldr	r2, [pc, #40]	@ (8000e08 <LoopFillZerobss+0x1e>)
 8000de0:	4c0a      	ldr	r4, [pc, #40]	@ (8000e0c <LoopFillZerobss+0x22>)
 8000de2:	2300      	movs	r3, #0
 8000de4:	e001      	b.n	8000dea <LoopFillZerobss>

08000de6 <FillZerobss>:
 8000de6:	6013      	str	r3, [r2, #0]
 8000de8:	3204      	adds	r2, #4

08000dea <LoopFillZerobss>:
 8000dea:	42a2      	cmp	r2, r4
 8000dec:	d3fb      	bcc.n	8000de6 <FillZerobss>
 8000dee:	f000 f819 	bl	8000e24 <__libc_init_array>
 8000df2:	f7ff fbef 	bl	80005d4 <main>
 8000df6:	4770      	bx	lr
 8000df8:	20020000 	.word	0x20020000
 8000dfc:	20000000 	.word	0x20000000
 8000e00:	2000000c 	.word	0x2000000c
 8000e04:	08000ea4 	.word	0x08000ea4
 8000e08:	2000000c 	.word	0x2000000c
 8000e0c:	2000002c 	.word	0x2000002c

08000e10 <ADC_IRQHandler>:
 8000e10:	e7fe      	b.n	8000e10 <ADC_IRQHandler>

08000e12 <memset>:
 8000e12:	4402      	add	r2, r0
 8000e14:	4603      	mov	r3, r0
 8000e16:	4293      	cmp	r3, r2
 8000e18:	d100      	bne.n	8000e1c <memset+0xa>
 8000e1a:	4770      	bx	lr
 8000e1c:	f803 1b01 	strb.w	r1, [r3], #1
 8000e20:	e7f9      	b.n	8000e16 <memset+0x4>
	...

08000e24 <__libc_init_array>:
 8000e24:	b570      	push	{r4, r5, r6, lr}
 8000e26:	4d0d      	ldr	r5, [pc, #52]	@ (8000e5c <__libc_init_array+0x38>)
 8000e28:	4c0d      	ldr	r4, [pc, #52]	@ (8000e60 <__libc_init_array+0x3c>)
 8000e2a:	1b64      	subs	r4, r4, r5
 8000e2c:	10a4      	asrs	r4, r4, #2
 8000e2e:	2600      	movs	r6, #0
 8000e30:	42a6      	cmp	r6, r4
 8000e32:	d109      	bne.n	8000e48 <__libc_init_array+0x24>
 8000e34:	4d0b      	ldr	r5, [pc, #44]	@ (8000e64 <__libc_init_array+0x40>)
 8000e36:	4c0c      	ldr	r4, [pc, #48]	@ (8000e68 <__libc_init_array+0x44>)
 8000e38:	f000 f818 	bl	8000e6c <_init>
 8000e3c:	1b64      	subs	r4, r4, r5
 8000e3e:	10a4      	asrs	r4, r4, #2
 8000e40:	2600      	movs	r6, #0
 8000e42:	42a6      	cmp	r6, r4
 8000e44:	d105      	bne.n	8000e52 <__libc_init_array+0x2e>
 8000e46:	bd70      	pop	{r4, r5, r6, pc}
 8000e48:	f855 3b04 	ldr.w	r3, [r5], #4
 8000e4c:	4798      	blx	r3
 8000e4e:	3601      	adds	r6, #1
 8000e50:	e7ee      	b.n	8000e30 <__libc_init_array+0xc>
 8000e52:	f855 3b04 	ldr.w	r3, [r5], #4
 8000e56:	4798      	blx	r3
 8000e58:	3601      	adds	r6, #1
 8000e5a:	e7f2      	b.n	8000e42 <__libc_init_array+0x1e>
 8000e5c:	08000e9c 	.word	0x08000e9c
 8000e60:	08000e9c 	.word	0x08000e9c
 8000e64:	08000e9c 	.word	0x08000e9c
 8000e68:	08000ea0 	.word	0x08000ea0

08000e6c <_init>:
 8000e6c:	b5f8      	push	{r3, r4, r5, r6, r7, lr}
 8000e6e:	bf00      	nop
 8000e70:	bcf8      	pop	{r3, r4, r5, r6, r7}
 8000e72:	bc08      	pop	{r3}
 8000e74:	469e      	mov	lr, r3
 8000e76:	4770      	bx	lr

08000e78 <_fini>:
 8000e78:	b5f8      	push	{r3, r4, r5, r6, r7, lr}
 8000e7a:	bf00      	nop
 8000e7c:	bcf8      	pop	{r3, r4, r5, r6, r7}
 8000e7e:	bc08      	pop	{r3}
 8000e80:	469e      	mov	lr, r3
 8000e82:	4770      	bx	lr
